Certificate:
    Data:
        Version: 3 (0x2)
        Serial Number: 4096 (0x1000)
        Signature Algorithm: sha256WithRSAEncryption
        Issuer: C=US, ST=Florida, L=New Port Richey, O=Cantrell Cloud ES, OU=InfoSys, CN=COPINE Kubernetes Issuing Certificate Authority 01
        Validity
            Not Before: Feb 23 00:57:52 2025 GMT
            Not After : Mar 25 00:57:52 2027 GMT
        Subject: C=US, ST=Florida, O=Cantrell Cloud ES, OU=InfoSys, CN=Kubernetes Cluster copine-kube CA
        Subject Public Key Info:
            Public Key Algorithm: rsaEncryption
                Public-Key: (2048 bit)
                Modulus:
                    00:af:11:5a:96:ce:2f:b4:c2:9d:da:d4:65:ef:ac:
                    44:cb:98:ed:0a:66:97:c4:6e:a8:7a:5a:af:0b:d9:
                    57:c6:2c:d5:70:5e:7b:9e:58:c6:28:bd:df:7a:8c:
                    a7:92:b5:ca:f7:58:56:dc:46:75:7a:6f:6d:4e:ca:
                    a9:d8:62:95:5b:9e:3f:6e:2f:0c:bf:d0:ac:d4:4d:
                    24:a8:b1:dd:3e:a0:b7:73:f4:e8:8d:87:bf:d1:3f:
                    98:37:af:9f:bc:83:ea:77:98:4b:3d:f8:d4:d4:e3:
                    88:e1:d4:3b:d3:b7:fe:82:c2:bb:2d:b3:f9:f5:28:
                    fb:ec:cf:0c:ec:ea:0b:63:ee:b7:44:01:9b:b6:51:
                    40:72:0c:17:e6:39:8b:3c:75:e6:cf:81:3c:4b:4d:
                    0c:9e:7a:4e:ee:f1:2e:c3:36:0b:cd:b1:78:f8:76:
                    ef:96:dd:58:e9:41:6c:b1:06:7f:e7:9c:a3:ac:c7:
                    b2:39:c2:63:46:cd:09:4e:db:97:e8:41:27:11:55:
                    32:42:f8:0d:b3:a0:eb:53:ff:5c:5e:a8:72:45:73:
                    f4:2d:1e:9c:76:39:de:58:16:04:3f:d3:37:45:99:
                    5e:1d:4c:72:fb:b8:8b:3f:2e:0d:44:a1:5a:93:18:
                    ca:17:43:10:e1:e2:dc:d2:f5:a2:2c:8f:2e:79:00:
                    ed:07
                Exponent: 65537 (0x10001)
        X509v3 extensions:
            X509v3 Subject Key Identifier: 
                18:9C:D2:3E:08:0D:82:C7:BE:8D:A8:CA:F6:A2:DD:82:98:C4:AA:9A
            X509v3 Authority Key Identifier: 
                D7:C1:EA:BB:6B:42:31:CF:20:4C:85:4D:E6:9A:4A:6E:36:84:AA:C3
            X509v3 Basic Constraints: critical
                CA:TRUE, pathlen:1
            X509v3 Key Usage: critical
                Digital Signature, Certificate Sign, CRL Sign
    Signature Algorithm: sha256WithRSAEncryption
    Signature Value:
        a1:ba:61:5e:16:38:c0:44:40:b4:47:2e:c5:1e:9d:40:1e:78:
        63:30:84:93:1b:ba:fc:76:3f:cb:92:75:dc:a5:a7:b8:d4:55:
        9d:df:1f:21:8d:f7:88:77:bf:0e:98:dc:dd:c4:06:92:cc:e8:
        c8:53:c7:d5:4f:e2:81:8c:66:ff:8e:5e:4c:24:a5:b9:c1:0e:
        21:67:4b:1b:3a:fc:eb:9a:e6:08:76:df:51:3d:2c:2c:01:0c:
        93:de:a1:61:77:fc:52:c5:66:5f:c2:d5:2a:1c:b3:19:b0:92:
        2d:f1:1d:05:42:c3:39:f0:01:fb:a3:97:b1:14:52:ef:e9:55:
        ed:09:ec:16:f6:01:20:57:e1:97:46:67:93:94:c9:d5:e1:2b:
        0b:a5:ab:43:b4:1c:28:64:78:14:ca:41:52:4f:ed:57:81:8b:
        6d:67:97:a3:20:7d:9c:1c:cd:60:ee:1b:a4:49:b9:e7:21:48:
        17:97:36:28:2d:cc:08:36:f7:d2:30:d1:0b:c5:f1:43:0b:45:
        b8:28:1b:b7:11:99:66:e5:93:07:29:71:4d:3e:d7:0a:6a:e2:
        69:00:24:62:a0:cb:74:fd:13:50:e6:e8:83:20:7c:69:f3:aa:
        37:0b:f2:7e:16:45:64:5e:7b:40:ad:b3:00:97:1c:5f:1c:61:
        35:60:19:cb:82:71:2f:a1:bb:38:cc:1d:1b:84:2b:64:7a:87:
        cd:68:ef:9b:b3:6d:0b:54:18:a9:8e:76:2a:1d:a7:90:92:38:
        d9:d0:50:79:1a:cc:42:4c:fe:11:58:77:10:81:d1:78:52:f4:
        c5:8a:53:bb:93:23:78:88:d2:da:79:45:8f:45:71:19:e6:6a:
        1a:6c:80:a1:d7:2c:91:2f:35:fa:0d:9a:a2:f8:96:8e:e4:c3:
        6c:81:96:3a:00:a6:21:7a:98:e5:38:90:c3:e0:2f:73:96:51:
        02:bc:5b:cb:fb:1f:63:f4:e1:ba:2c:e0:1e:f4:6c:4c:16:19:
        29:da:0f:84:0f:a1:7e:80:da:5d:1b:c3:7b:ec:4f:34:1d:9e:
        d9:a8:ff:59:b8:4f:95:cc:0f:bd:da:de:4e:b3:e3:cd:93:ac:
        11:48:e5:f3:01:ca:4f:08:49:36:2d:b5:65:19:cc:10:ec:e7:
        ba:db:3b:9e:34:b1:e9:86:0b:81:dd:3d:a5:7f:76:89:c4:74:
        9e:50:72:91:79:32:ce:23:a9:d4:8b:ef:8b:ac:af:59:7c:0d:
        43:47:7c:e8:68:aa:2f:14:3a:fa:42:8e:82:6d:16:77:e5:91:
        35:62:9a:5e:a8:7d:4b:b3:ff:25:6f:f6:80:e9:db:a9:ab:f4:
        af:c1:03:a9:a7:06:63:3a
-----BEGIN CERTIFICATE-----
MIIFADCCAuigAwIBAgICEAAwDQYJKoZIhvcNAQELBQAwgaQxCzAJBgNVBAYTAlVT
MRAwDgYDVQQIDAdGbG9yaWRhMRgwFgYDVQQHDA9OZXcgUG9ydCBSaWNoZXkxGjAY
BgNVBAoMEUNhbnRyZWxsIENsb3VkIEVTMRAwDgYDVQQLDAdJbmZvU3lzMTswOQYD
VQQDDDJDT1BJTkUgS3ViZXJuZXRlcyBJc3N1aW5nIENlcnRpZmljYXRlIEF1dGhv
cml0eSAwMTAeFw0yNTAyMjMwMDU3NTJaFw0yNzAzMjUwMDU3NTJaMHkxCzAJBgNV
BAYTAlVTMRAwDgYDVQQIDAdGbG9yaWRhMRowGAYDVQQKDBFDYW50cmVsbCBDbG91
ZCBFUzEQMA4GA1UECwwHSW5mb1N5czEqMCgGA1UEAwwhS3ViZXJuZXRlcyBDbHVz
dGVyIGNvcGluZS1rdWJlIENBMIIBIjANBgkqhkiG9w0BAQEFAAOCAQ8AMIIBCgKC
AQEArxFals4vtMKd2tRl76xEy5jtCmaXxG6oelqvC9lXxizVcF57nljGKL3feoyn
krXK91hW3EZ1em9tTsqp2GKVW54/bi8Mv9Cs1E0kqLHdPqC3c/TojYe/0T+YN6+f
vIPqd5hLPfjU1OOI4dQ707f+gsK7LbP59Sj77M8M7OoLY+63RAGbtlFAcgwX5jmL
PHXmz4E8S00MnnpO7vEuwzYLzbF4+Hbvlt1Y6UFssQZ/55yjrMeyOcJjRs0JTtuX
6EEnEVUyQvgNs6DrU/9cXqhyRXP0LR6cdjneWBYEP9M3RZleHUxy+7iLPy4NRKFa
kxjKF0MQ4eLc0vWiLI8ueQDtBwIDAQABo2YwZDAdBgNVHQ4EFgQUGJzSPggNgse+
jajK9qLdgpjEqpowHwYDVR0jBBgwFoAU18Hqu2tCMc8gTIVN5ppKbjaEqsMwEgYD
VR0TAQH/BAgwBgEB/wIBATAOBgNVHQ8BAf8EBAMCAYYwDQYJKoZIhvcNAQELBQAD
ggIBAKG6YV4WOMBEQLRHLsUenUAeeGMwhJMbuvx2P8uSddylp7jUVZ3fHyGN94h3
vw6Y3N3EBpLM6MhTx9VP4oGMZv+OXkwkpbnBDiFnSxs6/Oua5gh231E9LCwBDJPe
oWF3/FLFZl/C1Socsxmwki3xHQVCwznwAfujl7EUUu/pVe0J7Bb2ASBX4ZdGZ5OU
ydXhKwulq0O0HChkeBTKQVJP7VeBi21nl6MgfZwczWDuG6RJuechSBeXNigtzAg2
99Iw0QvF8UMLRbgoG7cRmWblkwcpcU0+1wpq4mkAJGKgy3T9E1Dm6IMgfGnzqjcL
8n4WRWRee0CtswCXHF8cYTVgGcuCcS+huzjMHRuEK2R6h81o75uzbQtUGKmOdiod
p5CSONnQUHkazEJM/hFYdxCB0XhS9MWKU7uTI3iI0tp5RY9FcRnmahpsgKHXLJEv
NfoNmqL4lo7kw2yBljoApiF6mOU4kMPgL3OWUQK8W8v7H2P04bos4B70bEwWGSna
D4QPoX6A2l0bw3vsTzQdntmo/1m4T5XMD73a3k6z482TrBFI5fMByk8ISTYttWUZ
zBDs57rbO540semGC4HdPaV/donEdJ5QcpF5Ms4jqdSL74usr1l8DUNHfOhoqi8U
OvpCjoJtFnflkTViml6ofUuz/yVv9oDp26mr9K/BA6mnBmM6
-----END CERTIFICATE-----
-----BEGIN CERTIFICATE-----
MIIGaTCCBFGgAwIBAgITUAAAABGfspF4NAKTCwAAAAAAETANBgkqhkiG9w0BAQsF
ADAvMS0wKwYDVQQDEyRDYW50cmVsbCBDbG91ZCBDZXJ0aWZpY2F0ZSBBdXRob3Jp
dHkwHhcNMjUwMjIyMjI1NDAyWhcNMzUwMjIyMjMwNDAyWjCBoTELMAkGA1UEBhMC
VVMxEDAOBgNVBAgTB0Zsb3JpZGExGDAWBgNVBAcTD05ldyBQb3J0IFJpY2hleTEa
MBgGA1UEChMRQ2FudHJlbGwgQ2xvdWQgRVMxEDAOBgNVBAsTB0luZm9TeXMxODA2
BgNVBAMTL0NhbnRyZWxsIENsb3VkIElzc3VpbmcgQ2VydGlmaWNhdGUgQXV0aG9y
aXR5IDAzMIICIjANBgkqhkiG9w0BAQEFAAOCAg8AMIICCgKCAgEAsJdkhYpWY78O
lxZeUmgkMAX2+0Bj3vq9/HZv4c9ZEn3EfedUrS/0nq3NWyn+1NJtwTz+ODeCqFLN
4G6n4KFhXLc7DACsmb+UuBQdDG2wvog9JQ4aeXdPGtdSIinquhTMMV8CV4JypiXJ
62xjnm/RRfd/7hezTrmiER0mPaOQPRPwtNVIC/9KUVs1jZXo4trcn5EbR3He7Gf/
VsrdtFXQKR+wJrBeMTUleABty6aFcicSObXd8b4Ak4IKB09346TV8P6obTgU379W
N4yM+EOWKcRcyCP1kpAIdAZjKA04CF2dHZqnExdqMWo7pTulpDzunnmrut2795C0
sIECgtQ+K0JZsvy7bgdE10rvW3CX/UE5dd3idDB7pBlLj2PMQw7lwI7gh/2st8w1
F7pzrS8pBu4D9riX6nhNYhA9sFD+b37purGoYjKj7f/pXi6OBuANd89Rh7Y0/z5r
AINiJZgxyweslqqlxJYoUy/QX4yFIdm7y2dBCmpXMXNnHa73WIbsddv+k6g/US4i
lUmLoSMl/eufACm3spWVQLTWGL6y3/K64ZiZs5cRdtQmA0NIua7nJHnN/RPJFcbs
D4d13+7txljab3Ozag2RamuZlBu02b37gxx8KRNi7vSjVJBBNlONhvCG6wh3N/uM
VsI2J/3H/rpObtc0lrUTEYhpMLz0+dcCAwEAAaOCAQkwggEFMB0GA1UdDgQWBBQ0
O5cgo9tZyrg3rjI89kBnwf81GTAfBgNVHSMEGDAWgBTkevqeMDntvyukJgMZo3P3
8n58xjA/BgNVHR8EODA2MDSgMqAwhi5odHRwOi8vcGtpLmNhbnRyZWxsLmNsb3Vk
L3BraS9DT0NMT1VELVJPT1QuY3JsMHQGCCsGAQUFBwEBBGgwZjBkBggrBgEFBQcw
AoZYaHR0cDovL3BraS5jYW50cmVsbC5jbG91ZC9wa2kvQ09DTE9VRC1ST09UQ2Fu
dHJlbGwlMjBDbG91ZCUyMENlcnRpZmljYXRlJTIwQXV0aG9yaXR5LmNydDAMBgNV
HRMBAf8EAjAAMA0GCSqGSIb3DQEBCwUAA4ICAQBbcnM8Hgn5WUq0REtgV4E+v7bc
3yS5B7YSfZmifSJodzvoAp4RBz/0gPPpPOT5NRDK5PZ5JreM/wSsoWsQr2EyOuzm
4N0j4o1cCdLZAW2RnwmkXwA8hG4oSNiiJtgb9CNYw8nuRFB1PUqBCiD+a48Fy+Ag
OjcoBB7OfE5jXwdyOU/4GX2CAIo9Z+AIlMSXqrF0N2QxrD0GQ7eoa3D0BPpiFgxo
UdEIdF3smYrSKpmVBOeBPuXrtLF0QL+ueILnN6ieSHvnag1AYOfcN6rg+0qkoXTM
pCO4e12uxCL2hSsSFp1Rw/J3sAepiWRpmsGbo/hnZBW/Tm7BH3bZOGjNuKD3LPl4
nph8q78F/LqTepR1o5vYBdhrsw6LlYPrjdSWes4InS7YbFN+Tc2WJ08j1JM3q4/i
qw43FUKQoQJ6+9yZDhtYP3w0c36Bb7JvNW+d/17yeT5X5B4Hr1/WkU0GApJaumJF
oc9mlmAuSHG8PWTNrMbXicQHOaMHLwpThVhvUEIX8qLiMgSMvZnuQRssD88vKrM9
EsT9UNv596+XMksXWS+uj2vP16IeyuJcAAPVypEGTbkJt8RDeYbyxxFTJQ2ynSQb
Fu4KZN0x3K9PuEE/gs0YUs+uF+uuazfqRSzYwWRYaOm0G2EEJNo01J9hFA21Ym98
i3+sQHutIU6lQ+yYFg==
-----END CERTIFICATE-----
-----BEGIN CERTIFICATE-----
MIIFdTCCA12gAwIBAgIQOnU8DS1yX55OhDI1nWjdUTANBgkqhkiG9w0BAQ0FADBd
MRUwEwYKCZImiZPyLGQBGRYFY2xvdWQxGDAWBgoJkiaJk/IsZAEZFghjYW50cmVs
bDEqMCgGA1UEAwwhQ2FudHJlbGwgQ2xvdWQgRW50ZXJwcmlzZSBSb290IENBMB4X
DTIwMDQxMDAxMjE1OVoXDTMwMDQxMDAxMzE1N1owXTEVMBMGCgmSJomT8ixkARkW
BWNsb3VkMRgwFgYKCZImiZPyLGQBGRYIY2FudHJlbGwxKjAoBgNVBAMMIUNhbnRy
ZWxsIENsb3VkIEVudGVycHJpc2UgUm9vdCBDQTCCAiIwDQYJKoZIhvcNAQEBBQAD
ggIPADCCAgoCggIBAN7S5q0ygLstFNVUbu90B8WCPmgJY3snLeRvgttYXmYluRq5
tV+YWm/sUj1pcKoADlHHCR7WAY4cZ3Yll0RDVINeWCZ5XFI+2Sq5JfxFPrYmY7sP
ruvrUjIkrX1TJKmy9uTLtZanmT5kMK6GUk1sytvl2RQapS713OFogRyDTzwXHRcc
gE8ozlwrpjzus9KMJWnqYFcaxT2XgxpJx5bSyhezZYt+z/uOojnOIzV6MMEGUOff
6wmZ16ZRq1Tp/TAU50m14vU6PJWd0yi6V17EPSM6bt0x8pKCz5c5JpZ+2142PBLR
sf6THP0E8hFP9uJUGJJdP6d3xmYpCBq534OGwzfBphqTzM0uJ48agqQShhI6PNQU
sNn1qr5Sg4T3W1IdC/9LIh3WEAEsmQIOWNgZrTDudmwVucvJv3RHEagV3WeIhFjZ
1DzfpQfknc7Gb/VE65yHy1t72XkxzC5BeAg6+7izwcE+dBgQhM2eZ8tcmiDFjFvH
CMuqkjTbH0bZgmwJ5MennGbLt61eghrJaJJs3Vvv39jfZczmfdGfz+kUXGbEMLrb
whJ1AGUxpibSFYXFnqH9AfJEDtHSMtsK6WNtpXsL/VENIwt06ZS3+GpAQKAlzZVZ
R1LT8o8ELH+FwKzChDF08Xm1/X1nyDaUtwrjgeT2mN3kzJXwxe1mfwg5PmJ5AgMB
AAGjMTAvMA4GA1UdDwEB/wQEAwICBDAdBgNVHQ4EFgQUBwAfGzWqn5jHhQ8VGYLr
GO3RaRgwDQYJKoZIhvcNAQENBQADggIBAEzQkOj/rg53npuRO4xZtPW8cR44MbBT
dQkvb2LtbiJQLYXH9McgwneF1K3VcKI6cnOuW433ezfRxv09zoaJOLLYLWJFUnGX
qvcOKuwTXBpamDx90YZeNFXiRpWDDYU4fLn+w+78+6dioruBCePVIpIRPH1y9Me/
zx7WPsTcKcBGHwWvHgrufMWJRBXTuNjdqiTLdP5ba498AwQshVvBu+3wW2/KAeKY
g3g3kba0XwIgr4LxvgBOoFRGuGALbZYZ2sfqdqXU8z3qKztmsDQ9i893fppD1oZd
j1pNnvoQc7s5V0D/bMbywexaMmwT+QZGvt8b5BZBP60qHY88HMR6SD38gd/v+gqt
ibZ7AM5oEAh/f2ert8to3PjEhlATZ3YTBBrgINyKtZBiISq7QruP054rHD7eDoou
b7PDzph1J5MzOpTlOFEF8S2hvQNxB5OKmDkeDswI6gApRfRYLpWwY29lZoP8E6nB
gyK13hNgl1UZANpZfY/od3nE1JtiXVO6bUUVEACvCKbsWBivOMm12M0zyMc/rq5i
eZfFz8DFi/HwSOcn//qfa9YjeaH++xk5rICmocAZ772rVndpvFIQIP7G9BQXvnuI
FWIO2TDyZvotvj0Niq++ZDOsZ97D8L9ObEIFTXgbR5PpI3XjIfRMzzdjk4YaB63a
tkiatE2/jqV7
-----END CERTIFICATE-----
