Certificate:
    Data:
        Version: 3 (0x2)
        Serial Number: 4097 (0x1001)
        Signature Algorithm: sha256WithRSAEncryption
        Issuer: C=US, ST=Florida, L=New Port Richey, O=Cantrell Cloud ES, OU=InfoSys, CN=COPINE Kubernetes Issuing Certificate Authority 01
        Validity
            Not Before: Feb 23 22:51:57 2025 GMT
            Not After : Mar 25 22:51:57 2027 GMT
        Subject: C=US, ST=Florida, L=New Port Richey, O=Cantrell Cloud ES, OU=InfoSys, CN=kuberegistry.k8.cantrellcloud.net
        Subject Public Key Info:
            Public Key Algorithm: rsaEncryption
                Public-Key: (2048 bit)
                Modulus:
                    00:cf:47:44:98:ae:6a:51:be:ce:1a:2c:4b:cb:24:
                    b8:b3:3a:1a:1b:36:d6:43:51:08:24:ef:74:32:83:
                    61:71:22:75:df:d3:17:69:a9:74:09:15:30:4d:15:
                    2f:0a:b2:12:2a:64:c7:38:92:f9:cb:ee:67:e6:21:
                    3e:12:1e:77:3b:50:8b:a8:80:45:dc:4d:f8:ae:b5:
                    3b:56:74:87:59:42:9b:4e:f7:70:63:c9:94:f0:6a:
                    96:02:83:34:5f:ab:60:d3:e6:d6:07:3c:cf:95:f6:
                    de:f5:bd:e9:9b:02:55:d0:47:6c:42:6b:69:59:55:
                    fa:da:87:41:1b:bb:6d:61:0a:4f:14:e1:40:a9:1d:
                    cc:27:16:52:3e:c0:73:69:b0:dc:93:81:7f:b0:81:
                    f0:45:71:73:07:a9:8b:97:63:d9:23:e4:a5:0d:0a:
                    91:20:13:88:fe:06:ff:c3:79:14:e9:cc:0e:e3:09:
                    d1:96:5c:62:d1:32:9c:57:80:14:26:da:3e:0b:b7:
                    15:b5:95:fc:73:12:02:cb:24:f5:c7:c2:a4:a1:bf:
                    33:aa:07:6b:74:5f:b7:58:d1:23:cc:ec:08:1c:a5:
                    fa:52:e8:41:49:bc:7b:8b:c6:59:94:11:80:d2:99:
                    5b:d8:94:68:71:65:68:25:ae:d0:27:50:e4:0c:88:
                    cc:b5
                Exponent: 65537 (0x10001)
        X509v3 extensions:
            X509v3 Extended Key Usage: 
                TLS Web Server Authentication
            X509v3 Key Usage: 
                Key Encipherment, Data Encipherment
            X509v3 Subject Alternative Name: 
                DNS:kuberegistry.k8.cantrellcloud.net, DNS:kuberegistry.cantrellcloud.net, DNS:kuberegistry, IP Address:10.0.69.61
            X509v3 Subject Key Identifier: 
                39:0D:51:86:41:AE:64:E2:D9:C9:75:4F:14:EC:E6:31:47:F4:06:2A
            X509v3 Authority Key Identifier: 
                27:BF:52:F0:9E:EF:9C:A0:1B:14:34:53:CC:75:24:CD:15:43:F8:EA
    Signature Algorithm: sha256WithRSAEncryption
    Signature Value:
        08:17:48:a1:d2:c7:18:c8:7b:04:af:7e:28:f5:b2:8f:02:b4:
        71:61:14:cb:f0:a2:88:de:51:64:e3:d1:f9:29:86:d0:03:a8:
        36:d7:70:41:36:42:1d:90:6f:74:15:2e:30:e4:39:b9:3e:47:
        c1:82:fb:96:1f:3b:2d:39:3b:5c:03:27:29:0c:3c:9b:53:88:
        ac:67:88:d9:cf:ef:c9:56:25:e8:b8:36:0d:20:41:1f:b1:dd:
        ef:64:11:44:4e:48:77:c6:f1:fb:b1:15:12:a2:f5:c0:67:da:
        28:14:c5:e9:66:e7:fa:00:56:ff:3b:f3:06:4b:01:57:ef:9f:
        db:b1:46:d7:ca:49:8d:9f:d9:e5:a5:1d:d3:56:5c:06:47:47:
        d1:9f:53:0b:a2:57:33:97:74:8e:0a:74:84:18:65:27:0e:e0:
        30:04:00:2c:2e:93:e6:34:cc:58:4f:6b:93:69:05:a4:bd:f8:
        dc:01:4e:4b:26:95:7f:02:65:9b:6c:ee:11:61:69:8a:f6:f0:
        a0:29:fc:b7:6a:f4:b8:31:77:e9:25:5f:d7:04:56:d5:86:f9:
        cd:46:79:a7:45:bd:fc:a1:70:34:ad:69:ea:d9:77:9b:e5:2a:
        89:7f:a3:7c:2b:88:50:cd:37:cf:69:db:c2:da:ca:ce:a9:be:
        8a:9e:0b:92:2b:b3:f7:c1:0d:e9:33:ef:44:05:c7:39:6f:25:
        09:75:fd:75:09:f0:c5:ce:1b:8a:e6:b5:02:b3:73:b1:5e:d1:
        ed:43:7f:e4:5e:f7:4c:a0:6e:2a:7d:d8:fd:38:11:42:f6:2b:
        21:c2:b4:5d:17:da:ba:d9:3c:2b:16:f3:14:7d:8d:f8:98:3a:
        e2:07:14:cf:7c:ec:29:95:2d:9e:89:21:b5:55:ab:9f:90:97:
        6a:95:34:74:67:1e:cc:22:2f:77:35:01:21:31:c5:ae:4f:95:
        2e:50:42:fb:84:00:56:54:e1:ff:94:30:c0:95:b5:bb:a0:1e:
        b5:50:40:83:43:de:c8:de:0c:a7:54:76:bf:92:a1:52:1e:c9:
        ca:22:23:ab:06:58:d4:71:88:d6:5a:e9:0d:c3:26:5e:92:5d:
        4c:f1:18:54:b3:4f:a4:91:ef:a6:86:7d:a7:ab:c2:0b:3e:34:
        ba:de:f1:e3:d4:17:e4:e7:d6:b1:c1:76:f8:62:a1:0f:75:b5:
        6f:fa:ed:2e:b6:ba:1d:b1:c3:71:93:55:ca:58:92:eb:bd:f3:
        72:bf:ca:74:8a:55:56:d1:72:29:21:b4:a1:0b:e7:40:24:12:
        5a:09:f1:39:c8:74:1d:8b:80:f7:3c:e2:d1:ed:e4:b3:da:e5:
        81:c2:1f:67:8d:d7:60:76
-----BEGIN CERTIFICATE-----
MIIFfTCCA2WgAwIBAgICEAEwDQYJKoZIhvcNAQELBQAwgaQxCzAJBgNVBAYTAlVT
MRAwDgYDVQQIDAdGbG9yaWRhMRgwFgYDVQQHDA9OZXcgUG9ydCBSaWNoZXkxGjAY
BgNVBAoMEUNhbnRyZWxsIENsb3VkIEVTMRAwDgYDVQQLDAdJbmZvU3lzMTswOQYD
VQQDDDJDT1BJTkUgS3ViZXJuZXRlcyBJc3N1aW5nIENlcnRpZmljYXRlIEF1dGhv
cml0eSAwMTAeFw0yNTAyMjMyMjUxNTdaFw0yNzAzMjUyMjUxNTdaMIGTMQswCQYD
VQQGEwJVUzEQMA4GA1UECAwHRmxvcmlkYTEYMBYGA1UEBwwPTmV3IFBvcnQgUmlj
aGV5MRowGAYDVQQKDBFDYW50cmVsbCBDbG91ZCBFUzEQMA4GA1UECwwHSW5mb1N5
czEqMCgGA1UEAwwha3ViZXJlZ2lzdHJ5Lms4LmNhbnRyZWxsY2xvdWQubmV0MIIB
IjANBgkqhkiG9w0BAQEFAAOCAQ8AMIIBCgKCAQEAz0dEmK5qUb7OGixLyyS4szoa
GzbWQ1EIJO90MoNhcSJ139MXaal0CRUwTRUvCrISKmTHOJL5y+5n5iE+Eh53O1CL
qIBF3E34rrU7VnSHWUKbTvdwY8mU8GqWAoM0X6tg0+bWBzzPlfbe9b3pmwJV0Eds
QmtpWVX62odBG7ttYQpPFOFAqR3MJxZSPsBzabDck4F/sIHwRXFzB6mLl2PZI+Sl
DQqRIBOI/gb/w3kU6cwO4wnRllxi0TKcV4AUJto+C7cVtZX8cxICyyT1x8Kkob8z
qgdrdF+3WNEjzOwIHKX6UuhBSbx7i8ZZlBGA0plb2JRocWVoJa7QJ1DkDIjMtQID
AQABo4HHMIHEMBMGA1UdJQQMMAoGCCsGAQUFBwMBMAsGA1UdDwQEAwIEMDBgBgNV
HREEWTBXgiFrdWJlcmVnaXN0cnkuazguY2FudHJlbGxjbG91ZC5uZXSCHmt1YmVy
ZWdpc3RyeS5jYW50cmVsbGNsb3VkLm5ldIIMa3ViZXJlZ2lzdHJ5hwQKAEU9MB0G
A1UdDgQWBBQ5DVGGQa5k4tnJdU8U7OYxR/QGKjAfBgNVHSMEGDAWgBQnv1Lwnu+c
oBsUNFPMdSTNFUP46jANBgkqhkiG9w0BAQsFAAOCAgEACBdIodLHGMh7BK9+KPWy
jwK0cWEUy/CiiN5RZOPR+SmG0AOoNtdwQTZCHZBvdBUuMOQ5uT5HwYL7lh87LTk7
XAMnKQw8m1OIrGeI2c/vyVYl6Lg2DSBBH7Hd72QRRE5Id8bx+7EVEqL1wGfaKBTF
6Wbn+gBW/zvzBksBV++f27FG18pJjZ/Z5aUd01ZcBkdH0Z9TC6JXM5d0jgp0hBhl
Jw7gMAQALC6T5jTMWE9rk2kFpL343AFOSyaVfwJlm2zuEWFpivbwoCn8t2r0uDF3
6SVf1wRW1Yb5zUZ5p0W9/KFwNK1p6tl3m+UqiX+jfCuIUM03z2nbwtrKzqm+ip4L
kiuz98EN6TPvRAXHOW8lCXX9dQnwxc4biua1ArNzsV7R7UN/5F73TKBuKn3Y/TgR
QvYrIcK0XRfautk8KxbzFH2N+Jg64gcUz3zsKZUtnokhtVWrn5CXapU0dGcezCIv
dzUBITHFrk+VLlBC+4QAVlTh/5QwwJW1u6AetVBAg0PeyN4Mp1R2v5KhUh7JyiIj
qwZY1HGI1lrpDcMmXpJdTPEYVLNPpJHvpoZ9p6vCCz40ut7x49QX5OfWscF2+GKh
D3W1b/rtLra6HbHDcZNVyliS673zcr/KdIpVVtFyKSG0oQvnQCQSWgnxOch0HYuA
9zzi0e3ks9rlgcIfZ43XYHY=
-----END CERTIFICATE-----
