Certificate:
    Data:
        Version: 3 (0x2)
        Serial Number: 4098 (0x1002)
        Signature Algorithm: sha256WithRSAEncryption
        Issuer: C=US, ST=Florida, L=New Port Richey, O=Cantrell Cloud ES, OU=InfoSys, CN=COPINE Kubernetes Issuing Certificate Authority 01
        Validity
            Not Before: Mar 20 21:20:38 2025 GMT
            Not After : Apr 19 21:20:38 2027 GMT
        Subject: C=US, ST=Florida, L=New Port Richey, O=Cantrell Cloud ES, OU=InfoSys, CN=rocket.cantrelloffice.cloud
        Subject Public Key Info:
            Public Key Algorithm: rsaEncryption
                Public-Key: (2048 bit)
                Modulus:
                    00:c1:15:92:76:0d:53:6c:f6:ad:9a:23:4d:3f:ed:
                    98:eb:ad:8a:c1:1d:89:68:ec:4e:70:0a:b7:16:28:
                    7b:3b:20:18:e3:b5:6f:00:d3:45:44:8e:77:29:48:
                    01:52:a3:4b:84:a7:e4:ed:f2:31:9f:09:a6:92:e6:
                    01:67:39:37:33:af:79:92:37:4b:13:71:ea:d9:0c:
                    80:d2:e2:d2:c8:82:f6:dc:d7:e9:d3:4c:b0:bd:8f:
                    2e:8f:43:7c:0e:80:0c:80:74:ca:fc:7a:43:f5:c3:
                    a8:f3:9f:a8:52:85:3b:67:05:b2:75:0b:9f:3e:de:
                    99:e6:ed:ad:01:4b:5d:5d:7a:3f:46:37:27:3f:72:
                    d6:dc:f5:6f:7e:11:20:48:47:81:95:cb:b1:de:28:
                    2e:07:73:d3:a5:54:b8:89:d3:2d:fe:02:40:23:79:
                    94:c9:f6:6a:9b:a1:7d:52:8c:bf:a7:79:12:56:b3:
                    a7:de:91:37:8c:a9:c5:3d:c3:d1:a2:f8:7a:6c:f5:
                    8e:fa:06:8b:71:48:ed:77:87:50:4d:c8:c2:c9:d2:
                    0c:10:0d:f2:de:ae:ad:ba:a4:19:79:76:b5:98:39:
                    2d:d1:b8:23:ef:bf:b1:56:b7:c1:8b:55:00:1a:c6:
                    e4:93:41:01:54:72:8d:8e:b0:c2:c4:ea:ce:ed:0d:
                    9f:53
                Exponent: 65537 (0x10001)
        X509v3 extensions:
            X509v3 Extended Key Usage: 
                TLS Web Server Authentication
            X509v3 Key Usage: 
                Key Encipherment, Data Encipherment
            X509v3 Subject Alternative Name: 
                DNS:rocket.cantrelloffice.cloud, DNS:rocket, IP Address:10.0.69.48
            X509v3 Subject Key Identifier: 
                D1:E3:70:24:56:D0:DD:BF:A7:99:51:DA:77:43:6D:6D:0D:42:DB:5D
            X509v3 Authority Key Identifier: 
                27:BF:52:F0:9E:EF:9C:A0:1B:14:34:53:CC:75:24:CD:15:43:F8:EA
    Signature Algorithm: sha256WithRSAEncryption
    Signature Value:
        2c:0f:68:91:7e:6c:71:61:db:98:d1:05:dc:cd:84:cf:2b:89:
        53:a7:50:4c:6e:eb:2d:f1:50:fe:3f:bf:b5:d3:c9:99:2b:3a:
        d0:b2:e8:26:99:d3:ee:83:3d:bd:dc:75:03:5f:53:c4:ee:6f:
        b7:6a:3a:d9:99:0a:93:26:c4:52:3d:db:82:3e:28:7f:37:0a:
        7b:21:c9:15:61:d0:d5:6f:07:1f:93:bd:a1:5f:ec:a0:d5:c2:
        ba:ba:5b:a8:14:69:2c:7a:2e:b1:c3:96:e0:24:7e:d6:f8:43:
        95:cd:a4:a4:3a:76:79:bd:4a:48:a3:b8:5c:3c:e6:48:93:c4:
        52:b5:ce:38:66:0d:9c:1d:00:d0:64:f6:a7:28:fb:e6:7a:be:
        22:4e:26:c2:92:d6:8b:d8:7e:7f:05:39:2b:40:16:fc:01:50:
        20:a4:4c:b4:b1:37:a4:7b:fe:28:c2:96:48:c9:ca:c5:13:bf:
        2c:d8:1d:f5:7b:60:c2:3a:1b:ef:8f:cf:d5:03:28:5b:7e:2c:
        fe:94:65:84:34:bb:08:82:9f:73:db:83:7e:80:fb:02:9e:38:
        a9:43:86:50:92:fd:f9:71:ea:87:8a:98:6e:ca:40:44:6c:31:
        fc:97:17:0d:6d:bf:c4:d9:cf:42:5a:61:dc:ec:ee:9b:6c:46:
        37:92:69:db:da:b2:58:f3:4e:b5:24:b0:2f:a3:7b:e8:c8:9a:
        ac:fa:0e:8d:20:1d:e4:c4:07:de:a3:d2:58:1d:0d:11:9f:46:
        28:48:0d:6e:06:a6:12:39:f6:f1:e2:8f:63:06:4e:00:fe:e0:
        e9:71:f8:8b:16:f5:6d:91:ea:74:ac:a1:39:02:0d:50:82:8e:
        00:e2:44:7d:bb:ce:c6:81:9b:fc:58:a1:ec:de:c6:81:fe:aa:
        81:bb:38:5f:8d:86:2e:68:7f:3f:97:05:4a:aa:47:8c:7c:ac:
        9c:47:c8:5f:a3:67:d6:19:20:d8:f3:23:7a:67:bb:8e:b1:61:
        2f:58:47:90:23:0f:74:37:0c:e9:e6:21:37:e4:cb:06:e4:03:
        57:77:b4:e9:5c:39:0e:27:35:78:79:42:b5:58:cf:7c:61:9e:
        8e:3f:f4:e3:38:83:4b:ae:06:e0:1e:18:72:db:83:58:36:d1:
        55:8a:87:e2:db:ab:28:e1:e5:91:84:c8:9e:ad:76:be:74:9e:
        4c:0d:bc:d5:c4:c8:b9:71:a8:9e:1e:07:f6:75:e3:84:9e:94:
        0d:32:8c:72:dd:47:d9:fc:ed:d9:50:ba:56:6f:e6:39:c3:96:
        ff:e5:2e:bd:ac:77:67:54:e7:d9:6d:7d:70:88:fd:4f:54:4e:
        26:47:41:9d:bb:f4:e7:81
-----BEGIN CERTIFICATE-----
MIIFSzCCAzOgAwIBAgICEAIwDQYJKoZIhvcNAQELBQAwgaQxCzAJBgNVBAYTAlVT
MRAwDgYDVQQIDAdGbG9yaWRhMRgwFgYDVQQHDA9OZXcgUG9ydCBSaWNoZXkxGjAY
BgNVBAoMEUNhbnRyZWxsIENsb3VkIEVTMRAwDgYDVQQLDAdJbmZvU3lzMTswOQYD
VQQDDDJDT1BJTkUgS3ViZXJuZXRlcyBJc3N1aW5nIENlcnRpZmljYXRlIEF1dGhv
cml0eSAwMTAeFw0yNTAzMjAyMTIwMzhaFw0yNzA0MTkyMTIwMzhaMIGNMQswCQYD
VQQGEwJVUzEQMA4GA1UECAwHRmxvcmlkYTEYMBYGA1UEBwwPTmV3IFBvcnQgUmlj
aGV5MRowGAYDVQQKDBFDYW50cmVsbCBDbG91ZCBFUzEQMA4GA1UECwwHSW5mb1N5
czEkMCIGA1UEAwwbcm9ja2V0LmNhbnRyZWxsb2ZmaWNlLmNsb3VkMIIBIjANBgkq
hkiG9w0BAQEFAAOCAQ8AMIIBCgKCAQEAwRWSdg1TbPatmiNNP+2Y662KwR2JaOxO
cAq3Fih7OyAY47VvANNFRI53KUgBUqNLhKfk7fIxnwmmkuYBZzk3M695kjdLE3Hq
2QyA0uLSyIL23Nfp00ywvY8uj0N8DoAMgHTK/HpD9cOo85+oUoU7ZwWydQufPt6Z
5u2tAUtdXXo/RjcnP3LW3PVvfhEgSEeBlcux3iguB3PTpVS4idMt/gJAI3mUyfZq
m6F9Uoy/p3kSVrOn3pE3jKnFPcPRovh6bPWO+gaLcUjtd4dQTcjCydIMEA3y3q6t
uqQZeXa1mDkt0bgj77+xVrfBi1UAGsbkk0EBVHKNjrDCxOrO7Q2fUwIDAQABo4Gb
MIGYMBMGA1UdJQQMMAoGCCsGAQUFBwMBMAsGA1UdDwQEAwIEMDA0BgNVHREELTAr
ghtyb2NrZXQuY2FudHJlbGxvZmZpY2UuY2xvdWSCBnJvY2tldIcECgBFMDAdBgNV
HQ4EFgQU0eNwJFbQ3b+nmVHad0NtbQ1C210wHwYDVR0jBBgwFoAUJ79S8J7vnKAb
FDRTzHUkzRVD+OowDQYJKoZIhvcNAQELBQADggIBACwPaJF+bHFh25jRBdzNhM8r
iVOnUExu6y3xUP4/v7XTyZkrOtCy6CaZ0+6DPb3cdQNfU8Tub7dqOtmZCpMmxFI9
24I+KH83CnshyRVh0NVvBx+TvaFf7KDVwrq6W6gUaSx6LrHDluAkftb4Q5XNpKQ6
dnm9SkijuFw85kiTxFK1zjhmDZwdANBk9qco++Z6viJOJsKS1ovYfn8FOStAFvwB
UCCkTLSxN6R7/ijClkjJysUTvyzYHfV7YMI6G++Pz9UDKFt+LP6UZYQ0uwiCn3Pb
g36A+wKeOKlDhlCS/flx6oeKmG7KQERsMfyXFw1tv8TZz0JaYdzs7ptsRjeSadva
sljzTrUksC+je+jImqz6Do0gHeTEB96j0lgdDRGfRihIDW4GphI59vHij2MGTgD+
4Olx+IsW9W2R6nSsoTkCDVCCjgDiRH27zsaBm/xYoezexoH+qoG7OF+Nhi5ofz+X
BUqqR4x8rJxHyF+jZ9YZINjzI3pnu46xYS9YR5AjD3Q3DOnmITfkywbkA1d3tOlc
OQ4nNXh5QrVYz3xhno4/9OM4g0uuBuAeGHLbg1g20VWKh+Lbqyjh5ZGEyJ6tdr50
nkwNvNXEyLlxqJ4eB/Z144SelA0yjHLdR9n87dlQulZv5jnDlv/lLr2sd2dU59lt
fXCI/U9UTiZHQZ279OeB
-----END CERTIFICATE-----
-----BEGIN PRIVATE KEY-----
MIIEvQIBADANBgkqhkiG9w0BAQEFAASCBKcwggSjAgEAAoIBAQDBFZJ2DVNs9q2a
I00/7ZjrrYrBHYlo7E5wCrcWKHs7IBjjtW8A00VEjncpSAFSo0uEp+Tt8jGfCaaS
5gFnOTczr3mSN0sTcerZDIDS4tLIgvbc1+nTTLC9jy6PQ3wOgAyAdMr8ekP1w6jz
n6hShTtnBbJ1C58+3pnm7a0BS11dej9GNyc/ctbc9W9+ESBIR4GVy7HeKC4Hc9Ol
VLiJ0y3+AkAjeZTJ9mqboX1SjL+neRJWs6fekTeMqcU9w9Gi+Hps9Y76BotxSO13
h1BNyMLJ0gwQDfLerq26pBl5drWYOS3RuCPvv7FWt8GLVQAaxuSTQQFUco2OsMLE
6s7tDZ9TAgMBAAECggEAELU0KkD28hvaY9cgLSL7M5Gdyx4qMMkZ9HoI48L2/uPF
I5ckltaxTMBjMVBIxQTaWQ1KMwjdIFzubBG5F1yNGUza4TslpPYbk1KQpy73fGBQ
ykVot18QgCauqbj2OC7+ZfM1SWmvDcoziXlMUG+09zI4AgbSbddHTANPECicWKU/
ofGHACZael9LFWYlN/sBfKpCI0+2V9ZTWuN8kv2NB+Bx3NmdzIEnqU41EJ4LOzkT
mF1YA648rHlbbCo5C8Ihd8MMeouzHt9uB6L5czscSgJ01objrtAYCRnOmqV5ZrUn
aPkZPCxzNiH17Z/pxsA20yOXJmd6HlH2ijGcvCOcEQKBgQD8MEyeekjO2gtmZ76Y
KUas7zj5E20tHszU1/pkSpGIC+lChF8a/TP4AH2Kw8LqtWKKinDNohWn29Bhenvw
nTtfaX6cLSIaZvgtod3rBGypxPx7exlvs6gg445AMOmZykYsEYIVjmwHyoCLC2nG
/aHx9z3U2h2Soku2CHaMeeO+iwKBgQDEAJoYBSjUSoUISd05nRMXkN8Q1pB+1H0j
2qG5BwyPchlF+IIMGXUzyvOg/oKDrZgBew20C4mVnhGYmbiWw8dAk5RewMlH+vzK
K0u44VPQMxIygbypjVrWRv/VMz2ciob6Eip9jXHYSdlnuR7wC1BNmYLG6KFtUoCM
Ki/2iEZDWQKBgFhzcEwdQ7AZVepC9NxVjc5V0Tu7Do3GwbzdS5sldEmtM9D6sIi8
yh9vvJiQ9Kpxl/BTgiD9em73b+zgktvfqdVbIOcSBWYRO3Z10Wn+kUYyKwP8Nv2w
m4V9ioUFIsmn4ljOgzugSk+pPNCH3j/G8af2OZ+QKNMnTTq5WSsIDVLlAoGBAKm/
M7UV0tR4bVpOTi+1X3GLYAS/LokJEg/ZKzKJblFVKZo1rLs52Q0v+Ws2wGW2E+1E
WwvQ6ikPqoGUsA6yI4BDz714DVovfnrAoGXPj7zCXkIrpe7Zow/skWhdZkCKoHc3
AGGX/D6rRoPUCX0u7y8lgeMuWY/KYdYCO2OxhdiRAoGABf2V6rRsHUsqa/kq1qpu
ZPugsTLxiqwnzgT6RVYDY0D3Wedokgcz4nq1h8ezPGbPRDd3ceaeu07HlKbqdiDb
iba0D7B09MIqCHVzLRz1oGQhI7faso/7NzCpnBu0E12qmRd9xViGY9iAK+O4FS0t
LYE90Ag6ixctg2AgPfZTs2c=
-----END PRIVATE KEY-----
Certificate:
    Data:
        Version: 3 (0x2)
        Serial Number: 4096 (0x1000)
        Signature Algorithm: sha256WithRSAEncryption
        Issuer: C=US, ST=Florida, L=New Port Richey, O=Cantrell Cloud ES, OU=InfoSys, CN=Cantrell Cloud Issuing Certificate Authority 03
        Validity
            Not Before: Feb 23 15:36:12 2025 GMT
            Not After : Mar 25 15:36:12 2027 GMT
        Subject: C=US, ST=Florida, L=New Port Richey, O=Cantrell Cloud ES, OU=InfoSys, CN=COPINE Kubernetes Issuing Certificate Authority 01
        Subject Public Key Info:
            Public Key Algorithm: rsaEncryption
                Public-Key: (4096 bit)
                Modulus:
                    00:a8:ea:f5:6a:6a:a3:cc:34:65:30:e0:b5:e3:a0:
                    06:87:2d:33:27:11:f3:d2:d7:a4:03:cc:10:b3:ac:
                    43:cc:4f:ee:36:a7:ab:41:34:54:1c:26:9c:2f:ee:
                    02:4e:61:ba:9b:54:b9:b7:f4:4f:2a:79:03:6d:47:
                    eb:44:de:0a:aa:86:5e:11:4e:8b:4f:88:25:2b:c2:
                    aa:79:3d:1c:e9:1e:9c:98:6a:ca:e5:67:b1:7e:8b:
                    80:c0:6c:dd:d8:f6:5c:91:87:53:1f:de:b9:af:ac:
                    2c:e4:99:af:65:bb:97:98:d5:d1:3b:57:8b:c1:58:
                    f7:c8:50:75:d4:78:96:7b:f6:b1:ad:f3:b9:54:e0:
                    9b:2b:20:3e:fd:46:5c:3c:00:c2:9f:b5:63:d5:ce:
                    0e:de:5b:d6:65:73:8f:66:24:1c:01:02:24:34:70:
                    9c:f5:bf:da:f7:15:5b:7f:9e:f8:4c:b7:5a:63:04:
                    33:1a:1e:29:7f:25:a3:62:63:9e:75:31:f7:62:24:
                    88:1d:eb:14:1b:7d:71:79:55:da:12:ac:23:4d:01:
                    c5:7e:cc:38:64:b5:55:c0:7e:ae:8d:c4:68:04:1b:
                    1b:69:a3:5a:3d:c3:b8:3a:42:69:10:d0:ad:d4:8e:
                    71:25:48:f8:fb:75:a3:d9:77:4b:db:30:e5:37:d7:
                    8f:13:82:ca:ca:c3:31:a8:73:81:29:44:c7:d3:89:
                    e8:eb:99:59:ff:5d:74:e3:e1:55:7e:0a:f2:d4:a5:
                    62:96:97:7a:ea:4a:ff:c6:19:c6:78:92:d3:f6:14:
                    3d:6b:44:00:6f:b2:7f:39:6e:c2:16:38:92:7d:c1:
                    f9:c4:01:09:51:26:48:6a:c5:eb:74:fd:3a:59:5e:
                    05:9a:db:54:05:1d:64:7b:b4:8f:20:28:9a:d6:2e:
                    f2:30:e1:dd:f6:05:5a:32:8e:d6:66:b5:a2:0a:b0:
                    d0:77:32:eb:b4:9d:39:8f:6e:13:80:24:ec:78:c2:
                    d3:88:ba:bb:7a:69:e2:1a:1b:d1:89:51:38:a5:32:
                    74:43:b3:7c:50:c7:e2:6a:20:76:fe:4b:9e:b8:33:
                    b5:0a:7a:6e:00:0a:1c:11:b8:ac:92:0b:47:11:c9:
                    8b:18:a5:14:fb:6c:a5:eb:fb:85:c4:d9:b7:cf:df:
                    dc:d4:f7:ea:ed:c7:9d:1c:97:7f:f7:3a:cf:2c:40:
                    14:3d:e1:e9:03:e2:28:3f:67:d0:13:b9:53:e1:71:
                    38:6e:9f:b5:18:a1:ec:0a:02:1a:76:24:2a:4f:37:
                    f9:79:3e:1c:e4:98:19:0c:6a:cb:75:1c:39:33:95:
                    91:33:ca:49:88:0f:ff:7c:2a:9f:e0:95:82:7f:7b:
                    08:53:0d
                Exponent: 65537 (0x10001)
        X509v3 extensions:
            X509v3 Subject Key Identifier: 
                27:BF:52:F0:9E:EF:9C:A0:1B:14:34:53:CC:75:24:CD:15:43:F8:EA
            X509v3 Authority Key Identifier: 
                E4:03:59:2A:42:85:02:78:5D:AE:E1:2D:1D:E3:1C:EF:BE:F9:1B:B1
            X509v3 Basic Constraints: critical
                CA:TRUE, pathlen:1
            X509v3 Key Usage: critical
                Digital Signature, Certificate Sign, CRL Sign
    Signature Algorithm: sha256WithRSAEncryption
    Signature Value:
        77:65:52:2f:95:8f:0d:bc:58:91:4a:0b:82:91:1c:db:5b:48:
        0a:14:58:98:7d:a0:96:1f:ed:c8:49:d1:21:c5:f1:8f:32:15:
        98:48:c4:d4:bf:db:ea:9d:50:ca:7e:97:2b:05:b5:58:7b:c2:
        fb:ac:1c:f8:a0:c8:46:f3:0b:97:90:64:12:d1:ce:fd:d2:4a:
        e3:46:c6:e9:75:46:97:93:74:8f:d9:84:c4:35:01:54:36:d0:
        a3:ac:ab:da:8a:19:04:1d:81:1f:7f:25:67:c5:02:93:26:1d:
        a7:4f:61:03:c1:8e:72:08:c0:e2:d1:e9:a5:02:17:33:79:51:
        eb:00:74:ae:76:d8:5e:4a:0d:23:1f:f2:ae:52:74:ce:48:37:
        3e:76:b6:69:ee:50:e5:24:24:ec:1b:37:84:e3:bc:59:41:99:
        c3:f0:3f:32:a2:c9:da:05:bf:57:20:7a:bb:4b:0f:95:6c:3c:
        8f:ec:44:9a:f1:c9:6b:c6:6e:c1:5b:9b:ca:43:a9:fb:16:90:
        24:b6:67:73:ff:eb:6b:64:8d:79:f2:3c:7c:4c:e2:01:08:cf:
        ae:4f:bb:3f:58:63:15:cf:9a:0d:c3:35:39:31:c3:a7:46:25:
        7d:61:ff:a7:99:81:07:03:5f:ce:66:a3:e9:9a:11:23:1e:dc:
        ec:60:68:ed:90:c0:61:f0:cb:61:64:7b:2f:19:6f:9c:bc:93:
        1d:91:3d:18:fe:0b:7c:e6:3c:6e:fb:2b:04:19:af:4f:df:99:
        55:32:7b:6a:4f:d5:d9:33:9f:9d:6d:00:cf:1e:aa:8d:0b:39:
        19:8e:61:1f:47:29:c8:4c:1a:87:93:10:1e:0b:cf:06:d5:f0:
        d0:29:d4:5d:be:8d:f6:3f:99:c5:40:39:f8:8a:c8:a0:37:6b:
        b3:98:2f:38:38:ec:36:12:29:3c:3b:c4:d2:e4:9d:e1:cd:dd:
        40:a6:bb:ec:a7:f1:7f:5a:b2:f4:d4:77:ee:97:2c:49:26:8a:
        e8:6e:93:e8:79:c9:45:29:da:b6:b7:a5:57:9d:1a:b7:26:5f:
        e8:88:3b:fa:65:cb:17:0e:77:4b:a1:52:f2:f3:8e:b8:f0:7e:
        8d:be:2c:04:ca:3f:b9:2f:6d:41:fe:3d:89:42:22:f7:ae:3b:
        83:f4:2a:b3:d3:e9:93:40:f8:a8:4a:2a:05:72:30:8f:70:bd:
        76:d6:07:7a:c1:22:aa:7e:96:d3:46:b3:94:28:68:8c:63:4b:
        0d:aa:f2:f8:b2:78:f8:39:db:8b:1e:35:59:ae:d0:a5:45:a7:
        df:16:23:98:5c:e8:cb:0c:5a:f1:2c:97:00:5a:43:eb:2f:7a:
        ff:f0:b6:e4:52:e3:82:27
-----BEGIN CERTIFICATE-----
MIIGKTCCBBGgAwIBAgICEAAwDQYJKoZIhvcNAQELBQAwgaExCzAJBgNVBAYTAlVT
MRAwDgYDVQQIEwdGbG9yaWRhMRgwFgYDVQQHEw9OZXcgUG9ydCBSaWNoZXkxGjAY
BgNVBAoTEUNhbnRyZWxsIENsb3VkIEVTMRAwDgYDVQQLEwdJbmZvU3lzMTgwNgYD
VQQDEy9DYW50cmVsbCBDbG91ZCBJc3N1aW5nIENlcnRpZmljYXRlIEF1dGhvcml0
eSAwMzAeFw0yNTAyMjMxNTM2MTJaFw0yNzAzMjUxNTM2MTJaMIGkMQswCQYDVQQG
EwJVUzEQMA4GA1UECAwHRmxvcmlkYTEYMBYGA1UEBwwPTmV3IFBvcnQgUmljaGV5
MRowGAYDVQQKDBFDYW50cmVsbCBDbG91ZCBFUzEQMA4GA1UECwwHSW5mb1N5czE7
MDkGA1UEAwwyQ09QSU5FIEt1YmVybmV0ZXMgSXNzdWluZyBDZXJ0aWZpY2F0ZSBB
dXRob3JpdHkgMDEwggIiMA0GCSqGSIb3DQEBAQUAA4ICDwAwggIKAoICAQCo6vVq
aqPMNGUw4LXjoAaHLTMnEfPS16QDzBCzrEPMT+42p6tBNFQcJpwv7gJOYbqbVLm3
9E8qeQNtR+tE3gqqhl4RTotPiCUrwqp5PRzpHpyYasrlZ7F+i4DAbN3Y9lyRh1Mf
3rmvrCzkma9lu5eY1dE7V4vBWPfIUHXUeJZ79rGt87lU4JsrID79Rlw8AMKftWPV
zg7eW9Zlc49mJBwBAiQ0cJz1v9r3FVt/nvhMt1pjBDMaHil/JaNiY551MfdiJIgd
6xQbfXF5VdoSrCNNAcV+zDhktVXAfq6NxGgEGxtpo1o9w7g6QmkQ0K3UjnElSPj7
daPZd0vbMOU3148TgsrKwzGoc4EpRMfTiejrmVn/XXTj4VV+CvLUpWKWl3rqSv/G
GcZ4ktP2FD1rRABvsn85bsIWOJJ9wfnEAQlRJkhqxet0/TpZXgWa21QFHWR7tI8g
KJrWLvIw4d32BVoyjtZmtaIKsNB3Muu0nTmPbhOAJOx4wtOIurt6aeIaG9GJUTil
MnRDs3xQx+JqIHb+S564M7UKem4AChwRuKySC0cRyYsYpRT7bKXr+4XE2bfP39zU
9+rtx50cl3/3Os8sQBQ94ekD4ig/Z9ATuVPhcThun7UYoewKAhp2JCpPN/l5Phzk
mBkMast1HDkzlZEzykmID/98Kp/glYJ/ewhTDQIDAQABo2YwZDAdBgNVHQ4EFgQU
J79S8J7vnKAbFDRTzHUkzRVD+OowHwYDVR0jBBgwFoAU5ANZKkKFAnhdruEtHeMc
7775G7EwEgYDVR0TAQH/BAgwBgEB/wIBATAOBgNVHQ8BAf8EBAMCAYYwDQYJKoZI
hvcNAQELBQADggIBAHdlUi+Vjw28WJFKC4KRHNtbSAoUWJh9oJYf7chJ0SHF8Y8y
FZhIxNS/2+qdUMp+lysFtVh7wvusHPigyEbzC5eQZBLRzv3SSuNGxul1RpeTdI/Z
hMQ1AVQ20KOsq9qKGQQdgR9/JWfFApMmHadPYQPBjnIIwOLR6aUCFzN5UesAdK52
2F5KDSMf8q5SdM5INz52tmnuUOUkJOwbN4TjvFlBmcPwPzKiydoFv1cgertLD5Vs
PI/sRJrxyWvGbsFbm8pDqfsWkCS2Z3P/62tkjXnyPHxM4gEIz65Puz9YYxXPmg3D
NTkxw6dGJX1h/6eZgQcDX85mo+maESMe3OxgaO2QwGHwy2Fkey8Zb5y8kx2RPRj+
C3zmPG77KwQZr0/fmVUye2pP1dkzn51tAM8eqo0LORmOYR9HKchMGoeTEB4LzwbV
8NAp1F2+jfY/mcVAOfiKyKA3a7OYLzg47DYSKTw7xNLkneHN3UCmu+yn8X9asvTU
d+6XLEkmiuhuk+h5yUUp2ra3pVedGrcmX+iIO/plyxcOd0uhUvLzjrjwfo2+LATK
P7kvbUH+PYlCIveuO4P0KrPT6ZNA+KhKKgVyMI9wvXbWB3rBIqp+ltNGs5QoaIxj
Sw2q8viyePg524seNVmu0KVFp98WI5hc6MsMWvEslwBaQ+svev/wtuRS44In
-----END CERTIFICATE-----
-----BEGIN CERTIFICATE-----
MIIHeDCCBWCgAwIBAgITUAAAABKRM+I+j914hAAAAAAAEjANBgkqhkiG9w0BAQsF
ADAvMS0wKwYDVQQDEyRDYW50cmVsbCBDbG91ZCBDZXJ0aWZpY2F0ZSBBdXRob3Jp
dHkwHhcNMjUwMjIzMDIxOTI1WhcNMzUwMjIzMDIyOTI1WjCBoTELMAkGA1UEBhMC
VVMxEDAOBgNVBAgTB0Zsb3JpZGExGDAWBgNVBAcTD05ldyBQb3J0IFJpY2hleTEa
MBgGA1UEChMRQ2FudHJlbGwgQ2xvdWQgRVMxEDAOBgNVBAsTB0luZm9TeXMxODA2
BgNVBAMTL0NhbnRyZWxsIENsb3VkIElzc3VpbmcgQ2VydGlmaWNhdGUgQXV0aG9y
aXR5IDAzMIICIjANBgkqhkiG9w0BAQEFAAOCAg8AMIICCgKCAgEArjBlSXzHx8Of
jYEmEKwbYpkJIdlw9BihA7LLajjwvXceFBXKGCAxtczGgqR6+fpgX2yM8jwdQshv
/QcPrAuR4YfkgaybrpS0EfgKPe9Z0o5NA0Cr2ahpyz4DE/jH1G1w+5zM84C1DY1b
90yCPFneNsu23CpOi7Si1c9avSh5Bp0isf8hsnqs0eiSyOwCEIcQMkRV4to874EK
eWeCSecpJm9B8IDVbO/noTFh6Yhyk0qnNtmM598y8+QE1Kowq9YPy3NAg8DVotPY
dYTYRJVfG/METdgzmKc53cE2N9HKPKOrjSB7GqfFlybMZMvqpou2ZWrl56kj9l85
I8Mhk3RBULobYZNiS73ycL80hsW+vLb7/Pgagz4tjENMlETXfcc8TCyNHehKxg+C
++5QcjRtaxpqDBi+yG6crDAf3r8JzkGqFnnlaNkmrjc6wDb6ivknaJo2qYCzmjhe
Ky/q3ZK9Y6l+Kmyf08KIWriZGM2a2HuCQShbPH84OO1+Ndnif4aU9U/ta0MHpLkW
vX90gJFapBOBs2bivab6s/PPyR2wiPKBT5RO+qRdyABpd6cjfo6vlkvepR+WRNes
JTpfp2nZRUknsrcjwbsbt5yx7VDK/BljzXNB3C3J8YmATjX1MnLUNKv22cau6rMz
tbzTZMoQ52xwMTGMe22S6aD2p9gG6N0CAwEAAaOCAhgwggIUMAsGA1UdDwQEAwIB
pjCB5AYDVR0gBIHcMIHZMIHWBiMqhkiG9xQBvkCTeoL5EoLJOIPeR4GBRYL2YIOZ
dYOMCoOjGDCBrjB4BggrBgEFBQcCAjBsHmoAVABoAGkAcwAgAEMAZQByAHQAaQBm
AGkAYwBhAHQAZQAgAGkAcwAgAHQAaABlACAAcAByAG8AcABlAHIAdAB5ACAAbwBm
ACAAQwBhAG4AdAByAGUAbABsACAAQwBsAG8AdQBkACAARQBTMDIGCCsGAQUFBwIB
FiZodHRwOi8vcGtpLmNhbnRyZWxsLmNsb3VkL3BraS9jcHMuaHRtbDATBgNVHSUE
DDAKBggrBgEFBQcDAjASBgNVHRMBAf8ECDAGAQH/AgEDMB0GA1UdDgQWBBTkA1kq
QoUCeF2u4S0d4xzvvvkbsTAfBgNVHSMEGDAWgBTkevqeMDntvyukJgMZo3P38n58
xjA/BgNVHR8EODA2MDSgMqAwhi5odHRwOi8vcGtpLmNhbnRyZWxsLmNsb3VkL3Br
aS9DT0NMT1VELVJPT1QuY3JsMHQGCCsGAQUFBwEBBGgwZjBkBggrBgEFBQcwAoZY
aHR0cDovL3BraS5jYW50cmVsbC5jbG91ZC9wa2kvQ09DTE9VRC1ST09UQ2FudHJl
bGwlMjBDbG91ZCUyMENlcnRpZmljYXRlJTIwQXV0aG9yaXR5LmNydDANBgkqhkiG
9w0BAQsFAAOCAgEAEVEo7fF30InUI6+s+qWbXd8EFALeWDNTmftvXWUJCFq09E/z
+QcmMieL4hLoKBONCk28G2OKyZg8fZy5tCzegRAkC+us0lCZyLPdRQX+sgLTayHT
viZmakraOGe93lXZ/tjbIAC+9o8lK+fQJEjjL8L2h8+YrCtsf54GUsoDRsT4xciZ
Fp/7d9I2M+kiqN7XLtRy1jNWc1/jQUnzoz07ng3173dri0ZO9SkciURhndLWg3Bd
/v5HFjYMKd9NXfCvCcWetfLQ8lgWlwuIKmav4+27x0llwLZUrISSfrAO24KVvTyc
7KQeHOVbSKFhMEgLNq50r2Ye+aoojnbfqbIA/mfi4ls1LRJmj0mR0cgyQ8Iv7rKD
GCKw5FcRaXAVrPblI55VozQXOJhDDkhMkiTj2kMyra5mlAVWy7al8nO6SgQFiUOz
tn7a3yZ48dONOVzSHal7CGq4cmcWpLmuwhIqF3adGvxBD+LLshquLwAayEiXSPJ+
SoYGBX97pEQTQdg42c3a0Kv4nKUg0jox1VpB3nTGqfd8MsrJT/AjVF/v3/MX2fJm
4jf46d10vJzoto+W94R/HwC9HwTHGYIVAY80GiwFr7jQLyJeqdFiTVAi8MluVcF/
/s59jKKUSdj902RIf4mYQJW5lLm7X3Iy04EoNfw/twBN+daH6RCspKjFJgE=
-----END CERTIFICATE-----
-----BEGIN CERTIFICATE-----
MIIFozCCA4ugAwIBAgIQNT4uU0uFz5BIhqwB6xoGnTANBgkqhkiG9w0BAQsFADAv
MS0wKwYDVQQDEyRDYW50cmVsbCBDbG91ZCBDZXJ0aWZpY2F0ZSBBdXRob3JpdHkw
HhcNMjAwNTA5MDUwNDMxWhcNNDAwNTA5MDUxNDMwWjAvMS0wKwYDVQQDEyRDYW50
cmVsbCBDbG91ZCBDZXJ0aWZpY2F0ZSBBdXRob3JpdHkwggIiMA0GCSqGSIb3DQEB
AQUAA4ICDwAwggIKAoICAQC4LJUrdzGynvw86Xb/LVk6tD6wuqmhE6PJPc4ztr9+
DI+QgwDDgoUVg05NSM88TliaWOb2+zlkylcoMiXRXpRNr8YLXImnCOTKSmusvRo+
lz3V3hdqDkIREn45MRhuslyhe92pl93FXcqZ3eTTSJxH84EjXoDVMeZVZyDi82so
psqCbZgbmrEPLjTllneZxOr56JHcZtXaYS6PvWO2zd1TD/rZs3eMaBlyNl5HuBor
/I4mkCedxuAqE1BzhmeqZJvOLrx5+r2kYoky/nMwyDJ6gpONFCvOaPwyS+xcV0J1
0IitM2hKzmdKMF45uR5vDOyoxyAFIc9bkMHT51gx4EtcOwWsfCCYN0FJchX0fJXy
V5VWbr2MzNIcp2sVugCwIPZ1AMs8SO3hEDs4macouCMgpWsQZx1ny2Cl7Mtz6Vsa
UwbMd4YxDiizdBHdGn/KXC7RiejfuPMBqAArwlvwV/eq2F5Nz5EgW6wjj4LYHhC7
PiM+tuOeKgLHSfO7Ey2TRGdeZlUoLz3nUwzOFSompjo9AhvJ3OLtZy4oYUjocvUt
SkG11/+vof49AUd4lXhMzqWgdPxZ/I4yapeBKfTfrNaOW2S4bXG6nvyY0Ol8ErTn
Z+DJ/yh3ASZoyf8UWf0HAt6Dwbg/s5mqcfjjrig0yZ4AkPItkr1A4vc6Z0LN7571
bQIDAQABo4G6MIG3MAsGA1UdDwQEAwIBhjAPBgNVHRMBAf8EBTADAQH/MB0GA1Ud
DgQWBBTkevqeMDntvyukJgMZo3P38n58xjAQBgkrBgEEAYI3FQEEAwIBADBmBgNV
HSAEXzBdMFsGIyqGSIb3FAG+QJN6gvkSgsk4g95HgYFFgvZgg5l1g4wKg6MYMDQw
MgYIKwYBBQUHAgEWJmh0dHA6Ly9wa2kuY2FudHJlbGwuY2xvdWQvcGtpL2Nwcy5o
dG1sMA0GCSqGSIb3DQEBCwUAA4ICAQAQhpWvjMBqBgdPsu6aABAKQVImun3e+5pI
eHzNDHTG6RkVZ8jr5CpOYopV+b88O9r8cdjE9Ynd8CpuJcsdNQajs5b9ixoiJQyT
5652yNYDYvMIlhjvImEBxqoAnzhiei8hpVsUbLY2w6zb0QGwfEbEfvIgQla6C/Eu
K6YZSp2E8Wp3vanmIMHOGf8LHH7fqOFBP0dIKVfSCxgMqwNJLZqcWhgZw80OUuXI
ECQhUFIlHQC+F98+xERfHPpwTIuwI33s2yZKUJt1cyY9aVZxP4DwnkMXHSiFPynd
yi4NsMJnmMCu/nvbcCSaMhgCmI/8+yC8sTt3XdFCzM5of1XbQ0ihQxMmS3/2Ry2L
TAqXN+aX9LRniC9EUODX5RnnsgNRKRAX3aX19AXY08xTHa1sUduNpW9479IUPfJ/
opEq/0Q7EjY5501eaCKYUkXgFt9D64bV81iYEr6EfVsBNdwRFP37VkZ1WLu/eks8
M6g0XvrNOt10qSlZuhVuINOGJOuFkUCCpp3nZ2x1rGilqjRO8sAZyZD3Gbh6ZdNj
mUJXdbathYil25WsyiMFMZAfSDvQFQcV96GNotdM/ugbCPeVM0RD/aE4YS8tRimJ
vo/u8zX3lfwZ9oLU9KYLHkTYmCFgSGbB4K+KdODnl+9xCg1hU/L9J6gZ852wbGqt
q4APpksHhg==
-----END CERTIFICATE-----