Certificate:
    Data:
        Version: 3 (0x2)
        Serial Number: 4096 (0x1000)
        Signature Algorithm: sha256WithRSAEncryption
        Issuer: C=US, ST=Florida, L=New Port Richey, O=Cantrell Cloud ES, OU=InfoSys, CN=Cantrell Cloud Issuing Certificate Authority 03
        Validity
            Not Before: Feb 23 15:36:12 2025 GMT
            Not After : Mar 25 15:36:12 2027 GMT
        Subject: C=US, ST=Florida, L=New Port Richey, O=Cantrell Cloud ES, OU=InfoSys, CN=COPINE Kubernetes Issuing Certificate Authority 01
        Subject Public Key Info:
            Public Key Algorithm: rsaEncryption
                Public-Key: (4096 bit)
                Modulus:
                    00:a8:ea:f5:6a:6a:a3:cc:34:65:30:e0:b5:e3:a0:
                    06:87:2d:33:27:11:f3:d2:d7:a4:03:cc:10:b3:ac:
                    43:cc:4f:ee:36:a7:ab:41:34:54:1c:26:9c:2f:ee:
                    02:4e:61:ba:9b:54:b9:b7:f4:4f:2a:79:03:6d:47:
                    eb:44:de:0a:aa:86:5e:11:4e:8b:4f:88:25:2b:c2:
                    aa:79:3d:1c:e9:1e:9c:98:6a:ca:e5:67:b1:7e:8b:
                    80:c0:6c:dd:d8:f6:5c:91:87:53:1f:de:b9:af:ac:
                    2c:e4:99:af:65:bb:97:98:d5:d1:3b:57:8b:c1:58:
                    f7:c8:50:75:d4:78:96:7b:f6:b1:ad:f3:b9:54:e0:
                    9b:2b:20:3e:fd:46:5c:3c:00:c2:9f:b5:63:d5:ce:
                    0e:de:5b:d6:65:73:8f:66:24:1c:01:02:24:34:70:
                    9c:f5:bf:da:f7:15:5b:7f:9e:f8:4c:b7:5a:63:04:
                    33:1a:1e:29:7f:25:a3:62:63:9e:75:31:f7:62:24:
                    88:1d:eb:14:1b:7d:71:79:55:da:12:ac:23:4d:01:
                    c5:7e:cc:38:64:b5:55:c0:7e:ae:8d:c4:68:04:1b:
                    1b:69:a3:5a:3d:c3:b8:3a:42:69:10:d0:ad:d4:8e:
                    71:25:48:f8:fb:75:a3:d9:77:4b:db:30:e5:37:d7:
                    8f:13:82:ca:ca:c3:31:a8:73:81:29:44:c7:d3:89:
                    e8:eb:99:59:ff:5d:74:e3:e1:55:7e:0a:f2:d4:a5:
                    62:96:97:7a:ea:4a:ff:c6:19:c6:78:92:d3:f6:14:
                    3d:6b:44:00:6f:b2:7f:39:6e:c2:16:38:92:7d:c1:
                    f9:c4:01:09:51:26:48:6a:c5:eb:74:fd:3a:59:5e:
                    05:9a:db:54:05:1d:64:7b:b4:8f:20:28:9a:d6:2e:
                    f2:30:e1:dd:f6:05:5a:32:8e:d6:66:b5:a2:0a:b0:
                    d0:77:32:eb:b4:9d:39:8f:6e:13:80:24:ec:78:c2:
                    d3:88:ba:bb:7a:69:e2:1a:1b:d1:89:51:38:a5:32:
                    74:43:b3:7c:50:c7:e2:6a:20:76:fe:4b:9e:b8:33:
                    b5:0a:7a:6e:00:0a:1c:11:b8:ac:92:0b:47:11:c9:
                    8b:18:a5:14:fb:6c:a5:eb:fb:85:c4:d9:b7:cf:df:
                    dc:d4:f7:ea:ed:c7:9d:1c:97:7f:f7:3a:cf:2c:40:
                    14:3d:e1:e9:03:e2:28:3f:67:d0:13:b9:53:e1:71:
                    38:6e:9f:b5:18:a1:ec:0a:02:1a:76:24:2a:4f:37:
                    f9:79:3e:1c:e4:98:19:0c:6a:cb:75:1c:39:33:95:
                    91:33:ca:49:88:0f:ff:7c:2a:9f:e0:95:82:7f:7b:
                    08:53:0d
                Exponent: 65537 (0x10001)
        X509v3 extensions:
            X509v3 Subject Key Identifier: 
                27:BF:52:F0:9E:EF:9C:A0:1B:14:34:53:CC:75:24:CD:15:43:F8:EA
            X509v3 Authority Key Identifier: 
                E4:03:59:2A:42:85:02:78:5D:AE:E1:2D:1D:E3:1C:EF:BE:F9:1B:B1
            X509v3 Basic Constraints: critical
                CA:TRUE, pathlen:1
            X509v3 Key Usage: critical
                Digital Signature, Certificate Sign, CRL Sign
    Signature Algorithm: sha256WithRSAEncryption
    Signature Value:
        77:65:52:2f:95:8f:0d:bc:58:91:4a:0b:82:91:1c:db:5b:48:
        0a:14:58:98:7d:a0:96:1f:ed:c8:49:d1:21:c5:f1:8f:32:15:
        98:48:c4:d4:bf:db:ea:9d:50:ca:7e:97:2b:05:b5:58:7b:c2:
        fb:ac:1c:f8:a0:c8:46:f3:0b:97:90:64:12:d1:ce:fd:d2:4a:
        e3:46:c6:e9:75:46:97:93:74:8f:d9:84:c4:35:01:54:36:d0:
        a3:ac:ab:da:8a:19:04:1d:81:1f:7f:25:67:c5:02:93:26:1d:
        a7:4f:61:03:c1:8e:72:08:c0:e2:d1:e9:a5:02:17:33:79:51:
        eb:00:74:ae:76:d8:5e:4a:0d:23:1f:f2:ae:52:74:ce:48:37:
        3e:76:b6:69:ee:50:e5:24:24:ec:1b:37:84:e3:bc:59:41:99:
        c3:f0:3f:32:a2:c9:da:05:bf:57:20:7a:bb:4b:0f:95:6c:3c:
        8f:ec:44:9a:f1:c9:6b:c6:6e:c1:5b:9b:ca:43:a9:fb:16:90:
        24:b6:67:73:ff:eb:6b:64:8d:79:f2:3c:7c:4c:e2:01:08:cf:
        ae:4f:bb:3f:58:63:15:cf:9a:0d:c3:35:39:31:c3:a7:46:25:
        7d:61:ff:a7:99:81:07:03:5f:ce:66:a3:e9:9a:11:23:1e:dc:
        ec:60:68:ed:90:c0:61:f0:cb:61:64:7b:2f:19:6f:9c:bc:93:
        1d:91:3d:18:fe:0b:7c:e6:3c:6e:fb:2b:04:19:af:4f:df:99:
        55:32:7b:6a:4f:d5:d9:33:9f:9d:6d:00:cf:1e:aa:8d:0b:39:
        19:8e:61:1f:47:29:c8:4c:1a:87:93:10:1e:0b:cf:06:d5:f0:
        d0:29:d4:5d:be:8d:f6:3f:99:c5:40:39:f8:8a:c8:a0:37:6b:
        b3:98:2f:38:38:ec:36:12:29:3c:3b:c4:d2:e4:9d:e1:cd:dd:
        40:a6:bb:ec:a7:f1:7f:5a:b2:f4:d4:77:ee:97:2c:49:26:8a:
        e8:6e:93:e8:79:c9:45:29:da:b6:b7:a5:57:9d:1a:b7:26:5f:
        e8:88:3b:fa:65:cb:17:0e:77:4b:a1:52:f2:f3:8e:b8:f0:7e:
        8d:be:2c:04:ca:3f:b9:2f:6d:41:fe:3d:89:42:22:f7:ae:3b:
        83:f4:2a:b3:d3:e9:93:40:f8:a8:4a:2a:05:72:30:8f:70:bd:
        76:d6:07:7a:c1:22:aa:7e:96:d3:46:b3:94:28:68:8c:63:4b:
        0d:aa:f2:f8:b2:78:f8:39:db:8b:1e:35:59:ae:d0:a5:45:a7:
        df:16:23:98:5c:e8:cb:0c:5a:f1:2c:97:00:5a:43:eb:2f:7a:
        ff:f0:b6:e4:52:e3:82:27
-----BEGIN CERTIFICATE-----
MIIGKTCCBBGgAwIBAgICEAAwDQYJKoZIhvcNAQELBQAwgaExCzAJBgNVBAYTAlVT
MRAwDgYDVQQIEwdGbG9yaWRhMRgwFgYDVQQHEw9OZXcgUG9ydCBSaWNoZXkxGjAY
BgNVBAoTEUNhbnRyZWxsIENsb3VkIEVTMRAwDgYDVQQLEwdJbmZvU3lzMTgwNgYD
VQQDEy9DYW50cmVsbCBDbG91ZCBJc3N1aW5nIENlcnRpZmljYXRlIEF1dGhvcml0
eSAwMzAeFw0yNTAyMjMxNTM2MTJaFw0yNzAzMjUxNTM2MTJaMIGkMQswCQYDVQQG
EwJVUzEQMA4GA1UECAwHRmxvcmlkYTEYMBYGA1UEBwwPTmV3IFBvcnQgUmljaGV5
MRowGAYDVQQKDBFDYW50cmVsbCBDbG91ZCBFUzEQMA4GA1UECwwHSW5mb1N5czE7
MDkGA1UEAwwyQ09QSU5FIEt1YmVybmV0ZXMgSXNzdWluZyBDZXJ0aWZpY2F0ZSBB
dXRob3JpdHkgMDEwggIiMA0GCSqGSIb3DQEBAQUAA4ICDwAwggIKAoICAQCo6vVq
aqPMNGUw4LXjoAaHLTMnEfPS16QDzBCzrEPMT+42p6tBNFQcJpwv7gJOYbqbVLm3
9E8qeQNtR+tE3gqqhl4RTotPiCUrwqp5PRzpHpyYasrlZ7F+i4DAbN3Y9lyRh1Mf
3rmvrCzkma9lu5eY1dE7V4vBWPfIUHXUeJZ79rGt87lU4JsrID79Rlw8AMKftWPV
zg7eW9Zlc49mJBwBAiQ0cJz1v9r3FVt/nvhMt1pjBDMaHil/JaNiY551MfdiJIgd
6xQbfXF5VdoSrCNNAcV+zDhktVXAfq6NxGgEGxtpo1o9w7g6QmkQ0K3UjnElSPj7
daPZd0vbMOU3148TgsrKwzGoc4EpRMfTiejrmVn/XXTj4VV+CvLUpWKWl3rqSv/G
GcZ4ktP2FD1rRABvsn85bsIWOJJ9wfnEAQlRJkhqxet0/TpZXgWa21QFHWR7tI8g
KJrWLvIw4d32BVoyjtZmtaIKsNB3Muu0nTmPbhOAJOx4wtOIurt6aeIaG9GJUTil
MnRDs3xQx+JqIHb+S564M7UKem4AChwRuKySC0cRyYsYpRT7bKXr+4XE2bfP39zU
9+rtx50cl3/3Os8sQBQ94ekD4ig/Z9ATuVPhcThun7UYoewKAhp2JCpPN/l5Phzk
mBkMast1HDkzlZEzykmID/98Kp/glYJ/ewhTDQIDAQABo2YwZDAdBgNVHQ4EFgQU
J79S8J7vnKAbFDRTzHUkzRVD+OowHwYDVR0jBBgwFoAU5ANZKkKFAnhdruEtHeMc
7775G7EwEgYDVR0TAQH/BAgwBgEB/wIBATAOBgNVHQ8BAf8EBAMCAYYwDQYJKoZI
hvcNAQELBQADggIBAHdlUi+Vjw28WJFKC4KRHNtbSAoUWJh9oJYf7chJ0SHF8Y8y
FZhIxNS/2+qdUMp+lysFtVh7wvusHPigyEbzC5eQZBLRzv3SSuNGxul1RpeTdI/Z
hMQ1AVQ20KOsq9qKGQQdgR9/JWfFApMmHadPYQPBjnIIwOLR6aUCFzN5UesAdK52
2F5KDSMf8q5SdM5INz52tmnuUOUkJOwbN4TjvFlBmcPwPzKiydoFv1cgertLD5Vs
PI/sRJrxyWvGbsFbm8pDqfsWkCS2Z3P/62tkjXnyPHxM4gEIz65Puz9YYxXPmg3D
NTkxw6dGJX1h/6eZgQcDX85mo+maESMe3OxgaO2QwGHwy2Fkey8Zb5y8kx2RPRj+
C3zmPG77KwQZr0/fmVUye2pP1dkzn51tAM8eqo0LORmOYR9HKchMGoeTEB4LzwbV
8NAp1F2+jfY/mcVAOfiKyKA3a7OYLzg47DYSKTw7xNLkneHN3UCmu+yn8X9asvTU
d+6XLEkmiuhuk+h5yUUp2ra3pVedGrcmX+iIO/plyxcOd0uhUvLzjrjwfo2+LATK
P7kvbUH+PYlCIveuO4P0KrPT6ZNA+KhKKgVyMI9wvXbWB3rBIqp+ltNGs5QoaIxj
Sw2q8viyePg524seNVmu0KVFp98WI5hc6MsMWvEslwBaQ+svev/wtuRS44In
-----END CERTIFICATE-----
-----BEGIN CERTIFICATE-----
MIIHeDCCBWCgAwIBAgITUAAAABKRM+I+j914hAAAAAAAEjANBgkqhkiG9w0BAQsF
ADAvMS0wKwYDVQQDEyRDYW50cmVsbCBDbG91ZCBDZXJ0aWZpY2F0ZSBBdXRob3Jp
dHkwHhcNMjUwMjIzMDIxOTI1WhcNMzUwMjIzMDIyOTI1WjCBoTELMAkGA1UEBhMC
VVMxEDAOBgNVBAgTB0Zsb3JpZGExGDAWBgNVBAcTD05ldyBQb3J0IFJpY2hleTEa
MBgGA1UEChMRQ2FudHJlbGwgQ2xvdWQgRVMxEDAOBgNVBAsTB0luZm9TeXMxODA2
BgNVBAMTL0NhbnRyZWxsIENsb3VkIElzc3VpbmcgQ2VydGlmaWNhdGUgQXV0aG9y
aXR5IDAzMIICIjANBgkqhkiG9w0BAQEFAAOCAg8AMIICCgKCAgEArjBlSXzHx8Of
jYEmEKwbYpkJIdlw9BihA7LLajjwvXceFBXKGCAxtczGgqR6+fpgX2yM8jwdQshv
/QcPrAuR4YfkgaybrpS0EfgKPe9Z0o5NA0Cr2ahpyz4DE/jH1G1w+5zM84C1DY1b
90yCPFneNsu23CpOi7Si1c9avSh5Bp0isf8hsnqs0eiSyOwCEIcQMkRV4to874EK
eWeCSecpJm9B8IDVbO/noTFh6Yhyk0qnNtmM598y8+QE1Kowq9YPy3NAg8DVotPY
dYTYRJVfG/METdgzmKc53cE2N9HKPKOrjSB7GqfFlybMZMvqpou2ZWrl56kj9l85
I8Mhk3RBULobYZNiS73ycL80hsW+vLb7/Pgagz4tjENMlETXfcc8TCyNHehKxg+C
++5QcjRtaxpqDBi+yG6crDAf3r8JzkGqFnnlaNkmrjc6wDb6ivknaJo2qYCzmjhe
Ky/q3ZK9Y6l+Kmyf08KIWriZGM2a2HuCQShbPH84OO1+Ndnif4aU9U/ta0MHpLkW
vX90gJFapBOBs2bivab6s/PPyR2wiPKBT5RO+qRdyABpd6cjfo6vlkvepR+WRNes
JTpfp2nZRUknsrcjwbsbt5yx7VDK/BljzXNB3C3J8YmATjX1MnLUNKv22cau6rMz
tbzTZMoQ52xwMTGMe22S6aD2p9gG6N0CAwEAAaOCAhgwggIUMAsGA1UdDwQEAwIB
pjCB5AYDVR0gBIHcMIHZMIHWBiMqhkiG9xQBvkCTeoL5EoLJOIPeR4GBRYL2YIOZ
dYOMCoOjGDCBrjB4BggrBgEFBQcCAjBsHmoAVABoAGkAcwAgAEMAZQByAHQAaQBm
AGkAYwBhAHQAZQAgAGkAcwAgAHQAaABlACAAcAByAG8AcABlAHIAdAB5ACAAbwBm
ACAAQwBhAG4AdAByAGUAbABsACAAQwBsAG8AdQBkACAARQBTMDIGCCsGAQUFBwIB
FiZodHRwOi8vcGtpLmNhbnRyZWxsLmNsb3VkL3BraS9jcHMuaHRtbDATBgNVHSUE
DDAKBggrBgEFBQcDAjASBgNVHRMBAf8ECDAGAQH/AgEDMB0GA1UdDgQWBBTkA1kq
QoUCeF2u4S0d4xzvvvkbsTAfBgNVHSMEGDAWgBTkevqeMDntvyukJgMZo3P38n58
xjA/BgNVHR8EODA2MDSgMqAwhi5odHRwOi8vcGtpLmNhbnRyZWxsLmNsb3VkL3Br
aS9DT0NMT1VELVJPT1QuY3JsMHQGCCsGAQUFBwEBBGgwZjBkBggrBgEFBQcwAoZY
aHR0cDovL3BraS5jYW50cmVsbC5jbG91ZC9wa2kvQ09DTE9VRC1ST09UQ2FudHJl
bGwlMjBDbG91ZCUyMENlcnRpZmljYXRlJTIwQXV0aG9yaXR5LmNydDANBgkqhkiG
9w0BAQsFAAOCAgEAEVEo7fF30InUI6+s+qWbXd8EFALeWDNTmftvXWUJCFq09E/z
+QcmMieL4hLoKBONCk28G2OKyZg8fZy5tCzegRAkC+us0lCZyLPdRQX+sgLTayHT
viZmakraOGe93lXZ/tjbIAC+9o8lK+fQJEjjL8L2h8+YrCtsf54GUsoDRsT4xciZ
Fp/7d9I2M+kiqN7XLtRy1jNWc1/jQUnzoz07ng3173dri0ZO9SkciURhndLWg3Bd
/v5HFjYMKd9NXfCvCcWetfLQ8lgWlwuIKmav4+27x0llwLZUrISSfrAO24KVvTyc
7KQeHOVbSKFhMEgLNq50r2Ye+aoojnbfqbIA/mfi4ls1LRJmj0mR0cgyQ8Iv7rKD
GCKw5FcRaXAVrPblI55VozQXOJhDDkhMkiTj2kMyra5mlAVWy7al8nO6SgQFiUOz
tn7a3yZ48dONOVzSHal7CGq4cmcWpLmuwhIqF3adGvxBD+LLshquLwAayEiXSPJ+
SoYGBX97pEQTQdg42c3a0Kv4nKUg0jox1VpB3nTGqfd8MsrJT/AjVF/v3/MX2fJm
4jf46d10vJzoto+W94R/HwC9HwTHGYIVAY80GiwFr7jQLyJeqdFiTVAi8MluVcF/
/s59jKKUSdj902RIf4mYQJW5lLm7X3Iy04EoNfw/twBN+daH6RCspKjFJgE=
-----END CERTIFICATE-----
-----BEGIN CERTIFICATE-----
MIIFozCCA4ugAwIBAgIQNT4uU0uFz5BIhqwB6xoGnTANBgkqhkiG9w0BAQsFADAv
MS0wKwYDVQQDEyRDYW50cmVsbCBDbG91ZCBDZXJ0aWZpY2F0ZSBBdXRob3JpdHkw
HhcNMjAwNTA5MDUwNDMxWhcNNDAwNTA5MDUxNDMwWjAvMS0wKwYDVQQDEyRDYW50
cmVsbCBDbG91ZCBDZXJ0aWZpY2F0ZSBBdXRob3JpdHkwggIiMA0GCSqGSIb3DQEB
AQUAA4ICDwAwggIKAoICAQC4LJUrdzGynvw86Xb/LVk6tD6wuqmhE6PJPc4ztr9+
DI+QgwDDgoUVg05NSM88TliaWOb2+zlkylcoMiXRXpRNr8YLXImnCOTKSmusvRo+
lz3V3hdqDkIREn45MRhuslyhe92pl93FXcqZ3eTTSJxH84EjXoDVMeZVZyDi82so
psqCbZgbmrEPLjTllneZxOr56JHcZtXaYS6PvWO2zd1TD/rZs3eMaBlyNl5HuBor
/I4mkCedxuAqE1BzhmeqZJvOLrx5+r2kYoky/nMwyDJ6gpONFCvOaPwyS+xcV0J1
0IitM2hKzmdKMF45uR5vDOyoxyAFIc9bkMHT51gx4EtcOwWsfCCYN0FJchX0fJXy
V5VWbr2MzNIcp2sVugCwIPZ1AMs8SO3hEDs4macouCMgpWsQZx1ny2Cl7Mtz6Vsa
UwbMd4YxDiizdBHdGn/KXC7RiejfuPMBqAArwlvwV/eq2F5Nz5EgW6wjj4LYHhC7
PiM+tuOeKgLHSfO7Ey2TRGdeZlUoLz3nUwzOFSompjo9AhvJ3OLtZy4oYUjocvUt
SkG11/+vof49AUd4lXhMzqWgdPxZ/I4yapeBKfTfrNaOW2S4bXG6nvyY0Ol8ErTn
Z+DJ/yh3ASZoyf8UWf0HAt6Dwbg/s5mqcfjjrig0yZ4AkPItkr1A4vc6Z0LN7571
bQIDAQABo4G6MIG3MAsGA1UdDwQEAwIBhjAPBgNVHRMBAf8EBTADAQH/MB0GA1Ud
DgQWBBTkevqeMDntvyukJgMZo3P38n58xjAQBgkrBgEEAYI3FQEEAwIBADBmBgNV
HSAEXzBdMFsGIyqGSIb3FAG+QJN6gvkSgsk4g95HgYFFgvZgg5l1g4wKg6MYMDQw
MgYIKwYBBQUHAgEWJmh0dHA6Ly9wa2kuY2FudHJlbGwuY2xvdWQvcGtpL2Nwcy5o
dG1sMA0GCSqGSIb3DQEBCwUAA4ICAQAQhpWvjMBqBgdPsu6aABAKQVImun3e+5pI
eHzNDHTG6RkVZ8jr5CpOYopV+b88O9r8cdjE9Ynd8CpuJcsdNQajs5b9ixoiJQyT
5652yNYDYvMIlhjvImEBxqoAnzhiei8hpVsUbLY2w6zb0QGwfEbEfvIgQla6C/Eu
K6YZSp2E8Wp3vanmIMHOGf8LHH7fqOFBP0dIKVfSCxgMqwNJLZqcWhgZw80OUuXI
ECQhUFIlHQC+F98+xERfHPpwTIuwI33s2yZKUJt1cyY9aVZxP4DwnkMXHSiFPynd
yi4NsMJnmMCu/nvbcCSaMhgCmI/8+yC8sTt3XdFCzM5of1XbQ0ihQxMmS3/2Ry2L
TAqXN+aX9LRniC9EUODX5RnnsgNRKRAX3aX19AXY08xTHa1sUduNpW9479IUPfJ/
opEq/0Q7EjY5501eaCKYUkXgFt9D64bV81iYEr6EfVsBNdwRFP37VkZ1WLu/eks8
M6g0XvrNOt10qSlZuhVuINOGJOuFkUCCpp3nZ2x1rGilqjRO8sAZyZD3Gbh6ZdNj
mUJXdbathYil25WsyiMFMZAfSDvQFQcV96GNotdM/ugbCPeVM0RD/aE4YS8tRimJ
vo/u8zX3lfwZ9oLU9KYLHkTYmCFgSGbB4K+KdODnl+9xCg1hU/L9J6gZ852wbGqt
q4APpksHhg==
-----END CERTIFICATE----------BEGIN CERTIFICATE-----
MIIFdTCCA12gAwIBAgIQOnU8DS1yX55OhDI1nWjdUTANBgkqhkiG9w0BAQ0FADBd
MRUwEwYKCZImiZPyLGQBGRYFY2xvdWQxGDAWBgoJkiaJk/IsZAEZFghjYW50cmVs
bDEqMCgGA1UEAwwhQ2FudHJlbGwgQ2xvdWQgRW50ZXJwcmlzZSBSb290IENBMB4X
DTIwMDQxMDAxMjE1OVoXDTMwMDQxMDAxMzE1N1owXTEVMBMGCgmSJomT8ixkARkW
BWNsb3VkMRgwFgYKCZImiZPyLGQBGRYIY2FudHJlbGwxKjAoBgNVBAMMIUNhbnRy
ZWxsIENsb3VkIEVudGVycHJpc2UgUm9vdCBDQTCCAiIwDQYJKoZIhvcNAQEBBQAD
ggIPADCCAgoCggIBAN7S5q0ygLstFNVUbu90B8WCPmgJY3snLeRvgttYXmYluRq5
tV+YWm/sUj1pcKoADlHHCR7WAY4cZ3Yll0RDVINeWCZ5XFI+2Sq5JfxFPrYmY7sP
ruvrUjIkrX1TJKmy9uTLtZanmT5kMK6GUk1sytvl2RQapS713OFogRyDTzwXHRcc
gE8ozlwrpjzus9KMJWnqYFcaxT2XgxpJx5bSyhezZYt+z/uOojnOIzV6MMEGUOff
6wmZ16ZRq1Tp/TAU50m14vU6PJWd0yi6V17EPSM6bt0x8pKCz5c5JpZ+2142PBLR
sf6THP0E8hFP9uJUGJJdP6d3xmYpCBq534OGwzfBphqTzM0uJ48agqQShhI6PNQU
sNn1qr5Sg4T3W1IdC/9LIh3WEAEsmQIOWNgZrTDudmwVucvJv3RHEagV3WeIhFjZ
1DzfpQfknc7Gb/VE65yHy1t72XkxzC5BeAg6+7izwcE+dBgQhM2eZ8tcmiDFjFvH
CMuqkjTbH0bZgmwJ5MennGbLt61eghrJaJJs3Vvv39jfZczmfdGfz+kUXGbEMLrb
whJ1AGUxpibSFYXFnqH9AfJEDtHSMtsK6WNtpXsL/VENIwt06ZS3+GpAQKAlzZVZ
R1LT8o8ELH+FwKzChDF08Xm1/X1nyDaUtwrjgeT2mN3kzJXwxe1mfwg5PmJ5AgMB
AAGjMTAvMA4GA1UdDwEB/wQEAwICBDAdBgNVHQ4EFgQUBwAfGzWqn5jHhQ8VGYLr
GO3RaRgwDQYJKoZIhvcNAQENBQADggIBAEzQkOj/rg53npuRO4xZtPW8cR44MbBT
dQkvb2LtbiJQLYXH9McgwneF1K3VcKI6cnOuW433ezfRxv09zoaJOLLYLWJFUnGX
qvcOKuwTXBpamDx90YZeNFXiRpWDDYU4fLn+w+78+6dioruBCePVIpIRPH1y9Me/
zx7WPsTcKcBGHwWvHgrufMWJRBXTuNjdqiTLdP5ba498AwQshVvBu+3wW2/KAeKY
g3g3kba0XwIgr4LxvgBOoFRGuGALbZYZ2sfqdqXU8z3qKztmsDQ9i893fppD1oZd
j1pNnvoQc7s5V0D/bMbywexaMmwT+QZGvt8b5BZBP60qHY88HMR6SD38gd/v+gqt
ibZ7AM5oEAh/f2ert8to3PjEhlATZ3YTBBrgINyKtZBiISq7QruP054rHD7eDoou
b7PDzph1J5MzOpTlOFEF8S2hvQNxB5OKmDkeDswI6gApRfRYLpWwY29lZoP8E6nB
gyK13hNgl1UZANpZfY/od3nE1JtiXVO6bUUVEACvCKbsWBivOMm12M0zyMc/rq5i
eZfFz8DFi/HwSOcn//qfa9YjeaH++xk5rICmocAZ772rVndpvFIQIP7G9BQXvnuI
FWIO2TDyZvotvj0Niq++ZDOsZ97D8L9ObEIFTXgbR5PpI3XjIfRMzzdjk4YaB63a
tkiatE2/jqV7
-----END CERTIFICATE-----
