Certificate:
    Data:
        Version: 3 (0x2)
        Serial Number: 4097 (0x1001)
        Signature Algorithm: sha256WithRSAEncryption
        Issuer: C=US, ST=Florida, L=Tampa, O=NGC, OU=Calico, CN=Kubernetes-Dev-CA
        Validity
            Not Before: Jan 24 14:31:26 2025 GMT
            Not After : Jan 24 14:31:26 2026 GMT
        Subject: C=US, ST=Florida, O=NGC, OU=Calico, CN=offline-registry.dev.local
        Subject Public Key Info:
            Public Key Algorithm: rsaEncryption
                Public-Key: (2048 bit)
                Modulus:
                    00:a2:5a:71:72:40:c2:b4:14:2f:3c:11:8e:9c:18:
                    3f:1c:ef:3b:fd:bd:39:9a:a0:b1:12:ab:63:cf:ff:
                    88:ac:e9:a9:16:e6:96:86:34:24:13:5e:c5:ac:5d:
                    1d:ac:6a:1e:5e:cd:28:6a:55:fc:d3:e5:92:3b:60:
                    45:d9:40:be:14:66:ef:00:fe:39:da:49:d9:40:f6:
                    5b:56:1f:e1:05:ab:b6:a9:1b:54:b1:ca:5e:a1:4e:
                    c8:86:ae:7c:d3:11:62:bf:2b:59:13:89:31:23:44:
                    98:a9:05:99:c3:a4:a2:de:71:60:5b:f3:21:a7:b3:
                    ea:a5:e8:a3:83:ac:24:ea:30:3b:ea:36:d9:e4:eb:
                    8e:c2:4b:08:1c:1f:85:b0:af:35:b4:d3:3d:4a:3c:
                    7a:e0:1c:2e:a5:fa:08:10:fe:d1:2b:da:ac:d5:be:
                    ce:0f:cb:14:66:19:86:60:88:18:ad:91:3d:4b:ef:
                    97:9a:e4:74:fc:04:49:5a:fa:99:63:68:f6:4f:22:
                    43:bb:35:89:bf:4d:ea:15:bb:58:7f:54:6b:b2:72:
                    b2:c7:7a:31:ad:e7:53:3e:ba:1e:d2:f0:39:52:5a:
                    4b:f6:ce:d1:6f:5e:10:3e:0a:2b:8f:4f:8f:80:65:
                    99:2e:00:09:2e:cf:87:72:5b:04:9b:3f:f1:3a:4a:
                    e8:9b
                Exponent: 65537 (0x10001)
        X509v3 extensions:
            X509v3 Basic Constraints: 
                CA:FALSE
            X509v3 Subject Key Identifier: 
                E5:59:F2:CC:10:16:24:8C:2B:5E:AA:E3:12:47:FE:AC:6F:62:D7:A6
            X509v3 Authority Key Identifier: 
                A7:28:E9:B3:1D:8A:96:F0:46:AD:3C:AB:07:E9:8F:2E:A2:42:E2:DC
    Signature Algorithm: sha256WithRSAEncryption
    Signature Value:
        02:b3:cf:37:83:15:7f:bd:7d:1b:4f:b7:a7:07:db:d7:37:c2:
        5f:b3:85:da:82:d2:6e:b7:64:11:36:37:c4:aa:25:bf:0c:99:
        f5:e1:5c:d9:c5:39:62:f7:c4:62:28:2c:8a:18:59:a1:7c:4c:
        5b:b7:7b:40:c1:a4:e6:40:38:c8:75:bf:a0:59:27:29:e8:fd:
        72:aa:06:08:51:f8:ed:5e:96:b5:1d:de:7a:28:ff:ec:b9:aa:
        ab:a6:88:b1:65:f6:93:88:30:9c:e0:ab:ce:9b:da:d6:75:b8:
        e7:13:86:ae:d2:6c:52:be:cc:31:3b:7a:09:49:c2:5d:85:d5:
        6c:d9:2c:2a:d6:75:de:43:f4:12:df:22:52:61:43:72:78:43:
        93:e2:02:9f:e6:26:79:fe:d3:fa:37:9a:63:03:64:5d:90:80:
        dd:60:f9:40:a2:bc:cd:17:91:21:00:76:af:0e:4a:f7:fd:29:
        16:28:40:46:4c:94:40:6b:12:45:09:7b:d5:a9:96:d9:cb:0e:
        e7:21:90:69:9b:4a:06:67:d1:fd:32:57:6d:14:e6:01:12:24:
        b8:cb:da:51:90:a8:02:8c:75:6d:43:b5:92:d8:87:9b:05:f1:
        15:4d:67:12:d4:cc:05:a6:92:50:f8:00:9f:a4:2c:f7:33:be:
        be:b3:24:97:01:1a:e9:18:c2:3a:69:6c:98:ca:52:50:d2:53:
        71:c1:f7:e7:1e:b7:bc:74:c2:69:6d:14:df:84:38:86:cf:4a:
        8a:43:b5:29:22:e8:a3:80:ab:36:d9:8a:82:5f:b1:5a:60:db:
        99:52:bc:85:92:71:69:70:76:b7:2e:a9:37:5d:53:59:a5:d9:
        01:53:d6:53:79:43:21:53:a5:51:6d:80:59:dd:43:89:9d:23:
        77:10:df:dc:25:d2:7c:ab:5a:fe:30:b1:db:b7:3d:cd:ea:b0:
        2d:9c:a7:65:de:87:58:9e:41:2a:4d:d4:50:71:90:62:82:b8:
        d4:40:ff:f8:d8:e7:22:30:59:68:2c:39:3a:19:91:c3:ab:cc:
        dc:f1:ae:e4:12:f8:8f:33:77:17:57:69:0d:e3:24:c8:1d:70:
        35:9b:0c:37:55:7a:e3:51:98:c4:02:dc:5f:a6:35:7f:38:c3:
        9e:53:ff:a3:b2:f4:fa:23:15:40:c3:f4:9c:ef:53:46:8f:d7:
        a5:33:ce:f7:34:c4:04:e6:5c:55:ca:80:3f:57:c4:f1:06:43:
        38:4d:3e:b2:82:2f:cf:a5:20:67:32:0a:fe:5b:3c:58:c3:dc:
        8c:31:68:9f:26:d3:67:a7:0a:60:05:cb:89:d2:30:9f:fd:e3:
        6d:96:66:1e:c3:d3:e6:53
-----BEGIN CERTIFICATE-----
MIIEljCCAn6gAwIBAgICEAEwDQYJKoZIhvcNAQELBQAwajELMAkGA1UEBhMCVVMx
EDAOBgNVBAgMB0Zsb3JpZGExDjAMBgNVBAcMBVRhbXBhMQwwCgYDVQQKDANOR0Mx
DzANBgNVBAsMBkNhbGljbzEaMBgGA1UEAwwRS3ViZXJuZXRlcy1EZXYtQ0EwHhcN
MjUwMTI0MTQzMTI2WhcNMjYwMTI0MTQzMTI2WjBjMQswCQYDVQQGEwJVUzEQMA4G
A1UECAwHRmxvcmlkYTEMMAoGA1UECgwDTkdDMQ8wDQYDVQQLDAZDYWxpY28xIzAh
BgNVBAMMGm9mZmxpbmUtcmVnaXN0cnkuZGV2LmxvY2FsMIIBIjANBgkqhkiG9w0B
AQEFAAOCAQ8AMIIBCgKCAQEAolpxckDCtBQvPBGOnBg/HO87/b05mqCxEqtjz/+I
rOmpFuaWhjQkE17FrF0drGoeXs0oalX80+WSO2BF2UC+FGbvAP452knZQPZbVh/h
Bau2qRtUscpeoU7Ihq580xFivytZE4kxI0SYqQWZw6Si3nFgW/Mhp7Pqpeijg6wk
6jA76jbZ5OuOwksIHB+FsK81tNM9Sjx64BwupfoIEP7RK9qs1b7OD8sUZhmGYIgY
rZE9S++XmuR0/ARJWvqZY2j2TyJDuzWJv03qFbtYf1RrsnKyx3oxredTProe0vA5
UlpL9s7Rb14QPgorj0+PgGWZLgAJLs+HclsEmz/xOkromwIDAQABo00wSzAJBgNV
HRMEAjAAMB0GA1UdDgQWBBTlWfLMEBYkjCtequMSR/6sb2LXpjAfBgNVHSMEGDAW
gBSnKOmzHYqW8EatPKsH6Y8uokLi3DANBgkqhkiG9w0BAQsFAAOCAgEAArPPN4MV
f719G0+3pwfb1zfCX7OF2oLSbrdkETY3xKolvwyZ9eFc2cU5YvfEYigsihhZoXxM
W7d7QMGk5kA4yHW/oFknKej9cqoGCFH47V6WtR3eeij/7Lmqq6aIsWX2k4gwnOCr
zpva1nW45xOGrtJsUr7MMTt6CUnCXYXVbNksKtZ13kP0Et8iUmFDcnhDk+ICn+Ym
ef7T+jeaYwNkXZCA3WD5QKK8zReRIQB2rw5K9/0pFihARkyUQGsSRQl71amW2csO
5yGQaZtKBmfR/TJXbRTmARIkuMvaUZCoAox1bUO1ktiHmwXxFU1nEtTMBaaSUPgA
n6Qs9zO+vrMklwEa6RjCOmlsmMpSUNJTccH35x63vHTCaW0U34Q4hs9KikO1KSLo
o4CrNtmKgl+xWmDbmVK8hZJxaXB2ty6pN11TWaXZAVPWU3lDIVOlUW2AWd1DiZ0j
dxDf3CXSfKta/jCx27c9zeqwLZynZd6HWJ5BKk3UUHGQYoK41ED/+NjnIjBZaCw5
OhmRw6vM3PGu5BL4jzN3F1dpDeMkyB1wNZsMN1V641GYxALcX6Y1fzjDnlP/o7L0
+iMVQMP0nO9TRo/XpTPO9zTEBOZcVcqAP1fE8QZDOE0+soIvz6UgZzIK/ls8WMPc
jDFonybTZ6cKYAXLidIwn/3jbZZmHsPT5lM=
-----END CERTIFICATE-----
