Certificate:
    Data:
        Version: 3 (0x2)
        Serial Number: 4098 (0x1002)
        Signature Algorithm: sha256WithRSAEncryption
        Issuer: C=US, ST=Florida, L=Tampa, O=NGC, OU=Calico, CN=Kubernetes-Dev-CA
        Validity
            Not Before: Jan 24 15:01:39 2025 GMT
            Not After : Jan 24 15:01:39 2026 GMT
        Subject: C=US, ST=Florida, O=NGC, OU=Calico, CN=offline-registry.dev.local
        Subject Public Key Info:
            Public Key Algorithm: rsaEncryption
                Public-Key: (2048 bit)
                Modulus:
                    00:9e:5f:72:25:0b:1b:a1:07:49:c7:18:47:36:a6:
                    37:63:fc:a2:03:cb:8e:f7:2c:66:57:af:b9:d1:68:
                    1e:b2:f8:04:16:d6:20:48:12:13:d1:f9:46:04:fe:
                    22:95:1c:06:2e:7a:fa:4d:79:dc:ca:44:3a:27:44:
                    f4:12:59:c1:35:27:02:f1:bb:fc:1d:46:b2:cd:93:
                    2d:44:db:0e:7d:e2:3d:6b:5d:4d:3d:20:a2:7b:77:
                    b6:f1:ad:54:d7:81:32:d8:2f:f5:f1:9f:ea:25:15:
                    99:28:ca:72:4e:ef:83:76:fb:78:b7:ec:3f:15:f3:
                    2a:6d:ba:00:63:7a:a1:79:8d:f7:cf:08:8e:b9:b6:
                    ac:b8:82:55:c5:0e:41:65:37:3f:cb:3d:48:2e:98:
                    49:a6:cd:dc:01:f9:d0:d1:3b:4d:f7:d4:cd:4e:5d:
                    fa:2d:69:ef:7c:28:78:55:3a:2d:3e:84:42:0d:e8:
                    a0:4d:dd:91:a2:c2:86:b4:bf:c9:dc:8e:d2:87:79:
                    11:16:72:22:02:25:31:c9:7a:f9:f8:cb:fb:8e:e9:
                    d1:23:26:dd:12:c1:3b:99:fe:fd:ca:e9:bd:b5:33:
                    93:d7:ad:24:d9:fd:e4:ce:1c:7d:d0:bb:96:2e:4c:
                    40:31:f5:b5:16:f8:0d:38:ed:a3:18:47:51:31:97:
                    96:4b
                Exponent: 65537 (0x10001)
        X509v3 extensions:
            X509v3 Basic Constraints: 
                CA:FALSE
            X509v3 Subject Key Identifier: 
                A2:45:41:C5:1E:7C:DC:B6:66:24:18:D5:81:D6:F4:BC:80:91:63:B4
            X509v3 Authority Key Identifier: 
                A7:28:E9:B3:1D:8A:96:F0:46:AD:3C:AB:07:E9:8F:2E:A2:42:E2:DC
    Signature Algorithm: sha256WithRSAEncryption
    Signature Value:
        a5:d9:a8:1e:d6:54:fd:d5:80:74:43:04:fa:6f:20:dd:29:75:
        0c:86:4c:df:d0:a3:0e:19:ec:25:54:9d:30:3b:42:0f:68:88:
        bc:b7:0b:86:9a:2b:b6:b9:e3:d3:7f:e9:bc:f4:f2:34:18:dd:
        6f:5c:10:67:f0:1f:f7:8d:7c:2c:d2:24:d0:82:72:9e:3e:4a:
        e4:55:0e:ac:29:91:34:f5:22:1e:be:75:08:80:3c:b4:cc:2c:
        75:4f:b5:83:db:c5:1d:df:3d:a3:19:2f:4a:16:8e:4d:1d:d6:
        24:d3:f2:89:44:ce:0e:6f:d2:08:90:0d:58:a1:4a:d2:4a:9d:
        c9:b2:47:fe:40:7f:27:33:71:bf:c1:b4:b0:b8:9e:8b:95:b9:
        f8:7c:78:ad:33:0c:b9:c1:16:a1:7d:af:2e:34:24:b2:f2:1b:
        c9:1c:d4:29:4c:56:ea:77:45:02:9a:ab:4a:c6:7f:9d:b6:aa:
        44:03:8b:d9:42:ff:6b:7c:96:c8:d0:67:73:a6:aa:13:74:61:
        5f:30:e1:90:86:bb:4e:ce:91:59:98:4c:b5:57:79:4b:e7:4c:
        de:86:c5:d0:e8:73:32:9f:a7:be:2b:e5:e2:17:16:d4:2e:73:
        8d:61:3b:b4:8b:a2:a4:51:eb:59:62:7e:43:0e:bb:f8:bd:04:
        38:3e:8a:7d:a0:21:25:24:49:6c:7f:02:89:89:b2:4a:61:11:
        12:e1:d2:18:a3:06:df:64:e2:18:73:2f:da:92:22:c9:b6:13:
        12:67:3c:dc:20:9f:91:5f:e8:fa:e0:1e:74:44:b3:7d:98:fd:
        a7:ec:02:07:fe:33:fa:8e:07:3f:4c:9f:17:e3:24:a1:65:33:
        d7:a6:4a:00:73:07:6a:95:81:54:35:3b:1f:97:07:35:fc:46:
        72:7f:1f:07:50:5e:4c:da:ac:db:68:1c:b5:6c:eb:00:e1:7c:
        7b:4d:ed:e8:02:88:bb:a3:b4:fb:96:93:ba:32:2f:12:85:38:
        21:d7:78:87:17:30:69:cf:c9:a5:31:0f:8d:4d:c7:e7:80:ff:
        c4:49:02:a4:34:6b:5f:00:59:27:bd:97:0f:3c:8f:3a:2c:68:
        c2:25:c5:e5:40:5f:92:91:89:03:25:89:29:27:bd:e0:42:0e:
        09:08:be:3f:d8:34:72:af:38:10:40:33:6c:05:62:af:5f:6c:
        95:a2:f9:a7:bd:6c:7e:e4:98:f7:bc:e7:e0:17:a9:7c:b2:da:
        4e:d3:de:29:d3:4c:3d:89:fa:47:fd:00:81:ff:d8:65:b1:b6:
        e7:51:2f:85:a3:de:2b:77:55:ca:bc:4b:97:e0:e0:7a:98:ea:
        f3:5e:c8:bf:cb:b5:a9:8d
-----BEGIN CERTIFICATE-----
MIIEljCCAn6gAwIBAgICEAIwDQYJKoZIhvcNAQELBQAwajELMAkGA1UEBhMCVVMx
EDAOBgNVBAgMB0Zsb3JpZGExDjAMBgNVBAcMBVRhbXBhMQwwCgYDVQQKDANOR0Mx
DzANBgNVBAsMBkNhbGljbzEaMBgGA1UEAwwRS3ViZXJuZXRlcy1EZXYtQ0EwHhcN
MjUwMTI0MTUwMTM5WhcNMjYwMTI0MTUwMTM5WjBjMQswCQYDVQQGEwJVUzEQMA4G
A1UECAwHRmxvcmlkYTEMMAoGA1UECgwDTkdDMQ8wDQYDVQQLDAZDYWxpY28xIzAh
BgNVBAMMGm9mZmxpbmUtcmVnaXN0cnkuZGV2LmxvY2FsMIIBIjANBgkqhkiG9w0B
AQEFAAOCAQ8AMIIBCgKCAQEAnl9yJQsboQdJxxhHNqY3Y/yiA8uO9yxmV6+50Wge
svgEFtYgSBIT0flGBP4ilRwGLnr6TXncykQ6J0T0ElnBNScC8bv8HUayzZMtRNsO
feI9a11NPSCie3e28a1U14Ey2C/18Z/qJRWZKMpyTu+Ddvt4t+w/FfMqbboAY3qh
eY33zwiOubasuIJVxQ5BZTc/yz1ILphJps3cAfnQ0TtN99TNTl36LWnvfCh4VTot
PoRCDeigTd2RosKGtL/J3I7Sh3kRFnIiAiUxyXr5+Mv7junRIybdEsE7mf79yum9
tTOT160k2f3kzhx90LuWLkxAMfW1FvgNOO2jGEdRMZeWSwIDAQABo00wSzAJBgNV
HRMEAjAAMB0GA1UdDgQWBBSiRUHFHnzctmYkGNWB1vS8gJFjtDAfBgNVHSMEGDAW
gBSnKOmzHYqW8EatPKsH6Y8uokLi3DANBgkqhkiG9w0BAQsFAAOCAgEApdmoHtZU
/dWAdEME+m8g3Sl1DIZM39CjDhnsJVSdMDtCD2iIvLcLhportrnj03/pvPTyNBjd
b1wQZ/Af9418LNIk0IJynj5K5FUOrCmRNPUiHr51CIA8tMwsdU+1g9vFHd89oxkv
ShaOTR3WJNPyiUTODm/SCJANWKFK0kqdybJH/kB/JzNxv8G0sLiei5W5+Hx4rTMM
ucEWoX2vLjQksvIbyRzUKUxW6ndFApqrSsZ/nbaqRAOL2UL/a3yWyNBnc6aqE3Rh
XzDhkIa7Ts6RWZhMtVd5S+dM3obF0OhzMp+nvivl4hcW1C5zjWE7tIuipFHrWWJ+
Qw67+L0EOD6KfaAhJSRJbH8CiYmySmEREuHSGKMG32TiGHMv2pIiybYTEmc83CCf
kV/o+uAedESzfZj9p+wCB/4z+o4HP0yfF+MkoWUz16ZKAHMHapWBVDU7H5cHNfxG
cn8fB1BeTNqs22gctWzrAOF8e03t6AKIu6O0+5aTujIvEoU4Idd4hxcwac/JpTEP
jU3H54D/xEkCpDRrXwBZJ72XDzyPOixowiXF5UBfkpGJAyWJKSe94EIOCQi+P9g0
cq84EEAzbAVir19slaL5p71sfuSY97zn4BepfLLaTtPeKdNMPYn6R/0Agf/YZbG2
51EvhaPeK3dVyrxLl+Dgepjq817Iv8u1qY0=
-----END CERTIFICATE-----
