Certificate:
    Data:
        Version: 3 (0x2)
        Serial Number: 4097 (0x1001)
        Signature Algorithm: sha256WithRSAEncryption
        Issuer: C=US, ST=Florida, L=Tampa, O=NGC, OU=Calico, CN=Kubernetes-Dev-CA
        Validity
            Not Before: Jan 28 15:10:07 2025 GMT
            Not After : Jan 28 15:10:07 2026 GMT
        Subject: C=US, ST=Florida, O=NGC, OU=Calico, CN=Kubedev-Cluster-Kubernetes-CA
        Subject Public Key Info:
            Public Key Algorithm: rsaEncryption
                Public-Key: (4096 bit)
                Modulus:
                    00:9e:65:3a:63:4d:c2:ed:30:62:82:6b:76:db:4b:
                    0a:72:53:00:5d:d1:5d:ce:c4:59:ce:07:00:1b:07:
                    4b:4b:27:7c:d3:bb:5c:49:10:31:87:29:7a:ba:6d:
                    df:f7:13:aa:91:1b:de:f7:06:f9:c5:7d:f3:95:63:
                    ac:67:32:a4:db:f4:0c:98:56:0f:93:d5:69:e2:f0:
                    83:dc:27:64:3a:ed:91:09:e3:61:c6:13:7f:ec:be:
                    f3:69:75:59:6a:b8:01:cc:65:2c:f9:33:82:b2:93:
                    3a:d2:d4:42:9a:4f:41:c8:99:75:0d:68:78:0f:7e:
                    5f:79:f9:8a:07:d5:f2:38:78:c7:ab:9f:4e:94:4f:
                    20:c0:af:08:4d:6c:9e:7f:c8:da:6e:07:0c:18:fb:
                    8d:1f:03:6d:a8:3f:62:c1:cc:85:bb:9a:98:f0:ae:
                    9c:e6:18:68:f7:b8:8e:49:22:1b:f8:fc:de:11:a8:
                    0e:b5:ba:ad:7f:7f:92:85:cd:90:c1:3d:fd:00:50:
                    08:58:a8:b1:51:de:bd:ee:89:60:80:42:0d:b1:2a:
                    76:5c:05:9e:2d:6d:b7:9e:bf:68:bd:f7:9a:e8:08:
                    95:3f:c6:dc:ea:00:6a:23:2c:9c:5e:49:a2:4f:4a:
                    2f:2b:e8:6a:80:5c:30:5a:f1:f4:16:60:99:11:db:
                    a6:8b:12:c1:ba:16:4e:56:fd:b5:ac:30:ef:4c:f4:
                    33:ef:55:5f:19:27:21:9e:6d:a4:13:9f:6c:ed:4a:
                    74:32:b3:a1:db:33:5b:ad:c7:cf:2d:ee:f2:89:84:
                    b5:28:72:a6:3d:61:96:8a:65:14:7c:e5:1f:22:f5:
                    c5:c2:91:eb:a7:ee:7c:46:d0:12:96:d6:4c:c8:27:
                    fe:05:56:ac:a1:79:bb:e6:6a:65:ca:01:e4:8d:71:
                    3f:06:9f:50:31:bc:8e:60:3f:4a:a9:f0:15:d7:15:
                    18:f7:2d:e0:c5:aa:d0:7b:94:1f:42:4e:f9:ef:32:
                    7f:62:cc:c9:59:16:3e:70:a0:dc:21:2b:67:b2:50:
                    ed:4e:5c:92:84:98:f5:e0:35:2e:31:43:43:cd:71:
                    88:82:c3:2e:d8:04:17:31:11:b0:8a:97:94:67:4b:
                    4f:19:7c:d9:62:d7:d4:c5:b2:f9:1e:4a:cb:85:a4:
                    b9:10:5a:f1:18:67:fc:94:f7:06:52:91:f3:e1:b6:
                    81:5b:0e:04:5e:b7:be:48:ec:88:a0:5e:62:4e:b6:
                    07:64:9a:f2:6c:cc:04:bd:b3:18:66:99:34:f5:b9:
                    de:d8:19:da:23:e3:a7:68:e7:9c:62:42:85:a7:53:
                    1a:41:8d:7e:8b:80:2e:77:30:ff:f7:41:37:42:fb:
                    1d:3c:4d
                Exponent: 65537 (0x10001)
        X509v3 extensions:
            X509v3 Subject Key Identifier: 
                81:63:BF:AE:D3:CE:67:E3:D0:49:2D:F5:D7:4D:66:1B:64:A8:4B:B2
            X509v3 Authority Key Identifier: 
                A7:28:E9:B3:1D:8A:96:F0:46:AD:3C:AB:07:E9:8F:2E:A2:42:E2:DC
            X509v3 Basic Constraints: critical
                CA:TRUE
    Signature Algorithm: sha256WithRSAEncryption
    Signature Value:
        5f:fc:e1:d7:2b:78:a8:fd:4f:2e:85:5f:dc:28:04:1b:e3:66:
        cf:f0:fe:4b:b9:fe:9f:5b:54:04:ba:83:5f:14:9c:a6:ce:6b:
        1a:ca:fc:7a:65:29:0d:27:81:d5:8f:d4:25:a9:a6:54:e7:2e:
        99:6d:92:0a:bc:81:40:ab:d9:7b:2d:fe:ec:71:5a:56:86:de:
        c2:9c:8d:63:65:b3:8e:2e:35:f3:fe:57:b2:53:04:48:35:c5:
        cc:dc:fd:44:af:12:b4:86:c0:9d:68:3f:0e:e4:88:d0:3e:05:
        8f:23:a8:9a:f6:19:e2:99:e3:31:14:a4:53:22:8a:30:82:8b:
        4f:b5:97:da:be:7e:be:8d:8a:6c:2b:3c:db:08:50:b6:67:51:
        0b:5b:7a:79:4a:8f:bb:1f:c4:7d:6b:c7:51:7d:7e:1f:dc:ac:
        f9:1a:b5:1f:e0:e6:6c:13:3c:d6:ec:1a:02:f7:72:50:ec:ac:
        08:76:fb:bc:96:da:c3:b4:1c:f0:6d:b4:a2:6a:8d:f1:27:f9:
        0a:8d:33:24:bf:d7:cb:2d:bf:02:c7:d1:b2:78:77:06:b6:a2:
        64:93:c3:61:94:d0:35:7f:ac:a8:f0:32:d4:1b:fe:ae:3c:1b:
        90:94:5f:46:c4:b4:5e:36:cd:f3:09:ea:09:aa:f7:01:4a:59:
        09:0a:e3:f9:b4:7f:2a:e4:89:d4:c9:30:a7:7d:c1:c4:00:59:
        75:05:8c:a4:60:01:45:26:5b:4f:ce:bf:5a:e6:da:f0:14:28:
        22:73:25:7b:26:8e:fd:da:b6:cd:bf:bc:e1:cc:7a:05:89:1e:
        59:5c:66:7f:c2:4d:96:48:f4:da:1f:4f:37:8d:af:30:18:ac:
        3d:8a:c8:4f:34:1f:a7:74:1f:e1:c7:ff:86:9d:e9:7c:f8:c1:
        2b:1e:92:8c:26:67:86:35:ed:cc:c7:7a:78:c6:07:a6:34:5f:
        4a:cc:7d:5f:34:a4:63:28:0f:4d:da:8c:2f:0a:a1:57:5c:ab:
        6a:0e:00:ab:7a:97:71:7f:9f:ab:a7:da:3c:43:15:70:7f:49:
        14:a1:73:62:ad:4d:40:a5:4e:b0:16:11:53:2b:ec:5e:81:79:
        d9:0d:40:a0:ba:91:8d:68:2e:e8:13:b6:99:f4:36:26:cc:08:
        e5:64:2a:99:37:16:6e:e2:4e:3e:80:a9:f4:eb:ce:4b:96:c8:
        b0:df:a0:7d:40:f2:b3:5e:a6:da:e9:05:9c:45:f2:72:ce:d9:
        e5:73:1c:88:d0:0d:78:d6:87:ad:4b:f6:ac:d3:a3:cc:b5:f1:
        64:e8:d6:4d:0f:86:db:a5:21:61:ac:b7:9c:d8:3b:3e:bc:fe:
        86:89:0e:09:3c:49:f8:db
-----BEGIN CERTIFICATE-----
MIIFnzCCA4egAwIBAgICEAEwDQYJKoZIhvcNAQELBQAwajELMAkGA1UEBhMCVVMx
EDAOBgNVBAgMB0Zsb3JpZGExDjAMBgNVBAcMBVRhbXBhMQwwCgYDVQQKDANOR0Mx
DzANBgNVBAsMBkNhbGljbzEaMBgGA1UEAwwRS3ViZXJuZXRlcy1EZXYtQ0EwHhcN
MjUwMTI4MTUxMDA3WhcNMjYwMTI4MTUxMDA3WjBmMQswCQYDVQQGEwJVUzEQMA4G
A1UECAwHRmxvcmlkYTEMMAoGA1UECgwDTkdDMQ8wDQYDVQQLDAZDYWxpY28xJjAk
BgNVBAMMHUt1YmVkZXYtQ2x1c3Rlci1LdWJlcm5ldGVzLUNBMIICIjANBgkqhkiG
9w0BAQEFAAOCAg8AMIICCgKCAgEAnmU6Y03C7TBigmt220sKclMAXdFdzsRZzgcA
GwdLSyd807tcSRAxhyl6um3f9xOqkRve9wb5xX3zlWOsZzKk2/QMmFYPk9Vp4vCD
3CdkOu2RCeNhxhN/7L7zaXVZargBzGUs+TOCspM60tRCmk9ByJl1DWh4D35fefmK
B9XyOHjHq59OlE8gwK8ITWyef8jabgcMGPuNHwNtqD9iwcyFu5qY8K6c5hho97iO
SSIb+PzeEagOtbqtf3+Shc2QwT39AFAIWKixUd697olggEINsSp2XAWeLW23nr9o
vfea6AiVP8bc6gBqIyycXkmiT0ovK+hqgFwwWvH0FmCZEdumixLBuhZOVv21rDDv
TPQz71VfGSchnm2kE59s7Up0MrOh2zNbrcfPLe7yiYS1KHKmPWGWimUUfOUfIvXF
wpHrp+58RtASltZMyCf+BVasoXm75mplygHkjXE/Bp9QMbyOYD9KqfAV1xUY9y3g
xarQe5QfQk757zJ/YszJWRY+cKDcIStnslDtTlyShJj14DUuMUNDzXGIgsMu2AQX
MRGwipeUZ0tPGXzZYtfUxbL5HkrLhaS5EFrxGGf8lPcGUpHz4baBWw4EXre+SOyI
oF5iTrYHZJrybMwEvbMYZpk09bne2BnaI+OnaOecYkKFp1MaQY1+i4AudzD/90E3
QvsdPE0CAwEAAaNTMFEwHQYDVR0OBBYEFIFjv67Tzmfj0Ekt9ddNZhtkqEuyMB8G
A1UdIwQYMBaAFKco6bMdipbwRq08qwfpjy6iQuLcMA8GA1UdEwEB/wQFMAMBAf8w
DQYJKoZIhvcNAQELBQADggIBAF/84dcreKj9Ty6FX9woBBvjZs/w/ku5/p9bVAS6
g18UnKbOaxrK/HplKQ0ngdWP1CWpplTnLpltkgq8gUCr2Xst/uxxWlaG3sKcjWNl
s44uNfP+V7JTBEg1xczc/USvErSGwJ1oPw7kiNA+BY8jqJr2GeKZ4zEUpFMiijCC
i0+1l9q+fr6NimwrPNsIULZnUQtbenlKj7sfxH1rx1F9fh/crPkatR/g5mwTPNbs
GgL3clDsrAh2+7yW2sO0HPBttKJqjfEn+QqNMyS/18stvwLH0bJ4dwa2omSTw2GU
0DV/rKjwMtQb/q48G5CUX0bEtF42zfMJ6gmq9wFKWQkK4/m0fyrkidTJMKd9wcQA
WXUFjKRgAUUmW0/Ov1rm2vAUKCJzJXsmjv3ats2/vOHMegWJHllcZn/CTZZI9Nof
TzeNrzAYrD2KyE80H6d0H+HH/4ad6Xz4wSsekowmZ4Y17czHenjGB6Y0X0rMfV80
pGMoD03ajC8KoVdcq2oOAKt6l3F/n6un2jxDFXB/SRShc2KtTUClTrAWEVMr7F6B
edkNQKC6kY1oLugTtpn0NibMCOVkKpk3Fm7iTj6AqfTrzkuWyLDfoH1A8rNeptrp
BZxF8nLO2eVzHIjQDXjWh61L9qzTo8y18WTo1k0PhtulIWGst5zYOz68/oaJDgk8
Sfjb
-----END CERTIFICATE-----
-----BEGIN CERTIFICATE-----
MIIFtTCCA52gAwIBAgIUGGhn5o8aLUpYS35M3fne5WXJE6cwDQYJKoZIhvcNAQEL
BQAwajELMAkGA1UEBhMCVVMxEDAOBgNVBAgMB0Zsb3JpZGExDjAMBgNVBAcMBVRh
bXBhMQwwCgYDVQQKDANOR0MxDzANBgNVBAsMBkNhbGljbzEaMBgGA1UEAwwRS3Vi
ZXJuZXRlcy1EZXYtQ0EwHhcNMjUwMTI0MTI0NjU2WhcNMzUwMTIyMTI0NjU2WjBq
MQswCQYDVQQGEwJVUzEQMA4GA1UECAwHRmxvcmlkYTEOMAwGA1UEBwwFVGFtcGEx
DDAKBgNVBAoMA05HQzEPMA0GA1UECwwGQ2FsaWNvMRowGAYDVQQDDBFLdWJlcm5l
dGVzLURldi1DQTCCAiIwDQYJKoZIhvcNAQEBBQADggIPADCCAgoCggIBALrDuh+F
7Yn9SUJkWI1QMfl8q6d/1mGXJyaWX3oToffIlQpA+3m9dXESRcU4Tu2d37Arfcq+
HVlMz0OYLUepEfQvNBR6DlEr+wLiLtD5J87oSWB2FnBmqnQEIofum0BodOIUYHdf
H+6dTB0M6+Z+eO55VZRPkMZHQajmGPnX2KdD/VRg2YhFhY+MCTU657EWnrEdwA+L
3ORveEAYsJh0GTqqqOZwTxUqUo2Pa/u5nWZojSJWc3ZXd9kamZqpuJ2AUXurR22z
/PVSQg3OTv6o9zGdK0GAeyLHLtL52RC1paRlfq/lHhR2HNw7dQq/EgNpqcGTH2ui
m3hD1P5ltlaSegDa2NZpmjv2ctUu5ePiGa7OHBmuJ0d5KknmHD68jtoBPW5E034q
RsB9aEN9F97PmOtgkjEFCBpxUbVOPdu4K+hHQG67kYwhc2654+YWI5QraCTI8mOl
A/7dTpXfwE9VxJb1Dc58p8ARtY1OqdCAbVGDHd4OLdce93cXaKT3Tuqm7LiSf92I
Gy67Gt4OaLeqzaBQ2y6AcF0BopVb3kzGbNWRuQ6FpWbhsc0Axb1qTGeyB0QILaMo
nLtFNCa9+5aIbibwS4uLO4i8Cq7OSQAzEV9qMBidMxIBVt+10R7BuDbBBS3kK8Zt
VaABvmf9ajph5oEwiRULgylI7m/eZtuxIMrdAgMBAAGjUzBRMB0GA1UdDgQWBBSn
KOmzHYqW8EatPKsH6Y8uokLi3DAfBgNVHSMEGDAWgBSnKOmzHYqW8EatPKsH6Y8u
okLi3DAPBgNVHRMBAf8EBTADAQH/MA0GCSqGSIb3DQEBCwUAA4ICAQBx4waMqus2
6FG8XFoNSU3sAT95PUv47Co5DnJxaUNJUen+f72yTzT5wgHzElcKoJ7KtIRs1dZH
o+vdnk6PMJ7v0iJj6A/Dig+tzL+OKtfxQbyW0Lsj+A15nKnWPuwhmdpc2FbfqAQU
hetPB1TLfCYcJEtaLcfm3KMyxQ57MMz2gNiTOrbjJGMOXUrdmnRELbxsVU9C6VsO
Z/pg+Cq332QZ0fqLMZiBxhJHscjKfaUkkMG5xGLdpktKAoFnlG6CPLCVYsMHWwxG
UztwAUYKHSmAZRS4Bnx5pyeCHOFxwCevGeOFFuyt10kU3goy9VTBmJraskr5bdz1
EORn43mHPNBuT4z0qnP6AtjBqFB8Nu7M2bN+CsY6WMZffqFMqEfHLINChTjRR26H
13SFLwphYizLG8+ogEV0/cnr32zEqiwj7pmvrMRXiLX4PxFU2LXEFQp/FnxWC796
Ip/IdlAFXBamTPcBTU9xs0MSNbB8vUG0B5SAW0TRcwTXbdyL3kHmQouoL0lQZZ57
Yf8Bpr40q4NZiR8x0uUPK/W7SlRyzoi/+Ln/S2TqvJDzxWIN5IWX8McxRcPIPCit
ZVbE22Ow2xgKu5bu5WK33aIRRb7tBD+YvcqWR8qQuar0i5TBN/f/ZqDnJLXnIsKR
7/mqv9VIUO/64vMBmju5USM7fZPHL8jeWQ==
-----END CERTIFICATE-----
