Certificate:
    Data:
        Version: 3 (0x2)
        Serial Number: 4096 (0x1000)
        Signature Algorithm: sha256WithRSAEncryption
        Issuer: C=US, ST=Florida, L=Tampa, O=NGC, OU=Calico, CN=Kubernetes-Dev-CA
        Validity
            Not Before: Jan 24 17:49:31 2025 GMT
            Not After : Jan 24 17:49:31 2026 GMT
        Subject: C=US, ST=Florida, O=NGC, OU=Calico, CN=offline-registry.dev.local
        Subject Public Key Info:
            Public Key Algorithm: rsaEncryption
                Public-Key: (2048 bit)
                Modulus:
                    00:9e:52:8d:47:1b:6d:bf:78:10:0e:98:76:7c:f6:
                    31:f4:06:bc:50:25:8e:27:6d:5a:0c:40:f8:81:16:
                    81:43:ee:b0:b2:16:3c:7f:d9:02:d7:f3:23:98:3d:
                    5f:63:b2:56:d6:1f:25:41:ed:e6:19:0f:b5:d8:37:
                    ef:3d:14:ef:4b:f0:eb:19:e5:1d:7d:0d:9f:5a:3e:
                    80:00:ab:1e:c1:35:be:8c:7e:7c:22:15:9b:df:f4:
                    1e:00:d7:2a:cf:fc:1d:20:24:6b:60:d1:10:34:75:
                    af:01:9d:c9:5d:c9:d8:d1:2c:51:04:66:86:57:e5:
                    08:53:ea:c3:84:8f:8d:d7:70:6b:4d:8b:12:eb:02:
                    f0:4d:0b:3c:fb:84:6d:61:be:cc:8a:fe:0c:18:e2:
                    0b:dc:72:24:50:1a:46:8d:76:68:3d:4a:85:84:bc:
                    4d:87:1c:54:01:77:cf:16:07:77:5b:95:e0:d7:5e:
                    62:3f:91:b5:03:07:70:c5:57:03:7a:8e:80:77:18:
                    1a:9c:06:76:0a:c6:64:24:c7:bc:9e:59:a1:b6:fe:
                    c7:d5:3c:71:eb:14:21:a0:12:d4:e2:48:c9:1a:a1:
                    91:93:b1:24:7a:c6:53:97:c2:d3:55:0d:5e:67:27:
                    49:a5:ab:5b:66:d8:ef:a5:5c:b9:b7:7e:7f:c1:1a:
                    d6:b7
                Exponent: 65537 (0x10001)
        X509v3 extensions:
            X509v3 Extended Key Usage: 
                TLS Web Server Authentication
            X509v3 Key Usage: 
                Key Encipherment, Data Encipherment
            X509v3 Subject Alternative Name: 
                DNS:offline-registry.dev.local, DNS:offline-registry, IP Address:10.0.3.229
            X509v3 Subject Key Identifier: 
                EA:9E:47:DB:66:5A:26:10:77:FF:6E:D6:1B:D3:FF:49:CE:51:D2:1C
            X509v3 Authority Key Identifier: 
                A7:28:E9:B3:1D:8A:96:F0:46:AD:3C:AB:07:E9:8F:2E:A2:42:E2:DC
    Signature Algorithm: sha256WithRSAEncryption
    Signature Value:
        53:ca:1e:38:24:bd:0f:8f:39:2a:c6:b0:a1:f1:95:79:77:73:
        4b:f1:33:02:0b:2b:55:4f:38:ce:8f:aa:d2:53:e8:b2:19:a6:
        6e:77:c0:40:99:b0:7e:ff:04:61:e0:aa:be:fe:65:06:16:06:
        f6:98:a9:c5:0f:61:71:2f:cf:94:c6:b2:3d:b7:7a:9b:1b:05:
        bb:46:48:56:f4:ca:09:76:58:c4:37:53:38:26:87:3a:6d:69:
        58:06:8f:0b:49:f9:58:c1:8d:18:3b:ef:fa:48:37:8c:11:9c:
        e9:68:a6:db:c8:aa:e4:46:7c:dd:ae:2a:d0:d9:c6:87:1c:ab:
        ae:db:f6:9d:84:d1:b8:6b:fe:e2:6f:3c:56:2c:e8:32:4d:12:
        03:73:9c:b3:8c:bc:26:b0:31:e9:70:8a:23:31:9a:9b:f3:aa:
        14:a0:50:35:ac:56:44:81:e1:f7:09:ca:89:a6:e2:b0:85:a2:
        2e:87:0b:34:e7:65:ff:39:c4:52:6d:53:ca:57:0b:7a:0d:6e:
        2e:e8:82:ff:1e:7c:37:7e:d3:07:6b:6e:97:38:59:d6:ee:3b:
        99:6a:2d:9a:eb:44:52:a1:51:70:8d:55:5a:9c:7b:f1:0e:c9:
        c0:cb:61:88:6e:6b:95:57:da:a5:a0:80:70:5d:b0:af:b9:24:
        f8:70:4a:25:0e:10:fe:88:a2:be:c0:be:9c:67:7c:56:39:6f:
        c6:7e:ae:b4:70:96:9c:b6:34:4a:49:b2:fa:c5:50:b1:43:f1:
        4d:b0:32:17:50:d6:61:d5:4f:df:16:76:7e:ab:21:94:82:f5:
        97:f0:24:a6:47:fe:8a:46:6b:f7:58:9c:43:5c:a8:29:f7:da:
        48:2a:4e:86:e0:22:8b:2f:72:d6:81:e6:55:26:1b:d5:c2:bb:
        63:b7:22:5d:e4:a9:b4:d5:a9:90:db:16:98:91:4e:dc:85:32:
        50:b4:cf:ad:3b:8f:54:13:07:bf:9a:5f:1c:43:ea:b0:55:f5:
        14:24:b2:8d:44:fe:7a:30:7c:d0:cc:f2:65:52:a3:42:c7:32:
        30:4a:50:aa:1d:25:27:24:11:ba:b1:c1:31:ee:80:d0:43:17:
        03:db:7e:99:33:d8:5f:22:9d:e7:1d:24:86:b0:62:2a:21:35:
        ba:5b:53:7c:21:d1:85:ce:e8:e7:02:21:55:b0:77:81:e6:40:
        3b:ce:2b:cc:a7:b4:a2:59:8e:5c:cc:fa:a5:77:9f:ca:6d:1d:
        2d:24:97:78:8b:25:ed:d8:35:cb:f1:4a:a8:77:75:6b:3e:de:
        65:d9:a5:ab:87:a8:3d:62:f6:05:70:8a:28:25:b7:ee:78:23:
        9b:37:a8:8c:53:2f:86:97
-----BEGIN CERTIFICATE-----
MIIE7jCCAtagAwIBAgICEAAwDQYJKoZIhvcNAQELBQAwajELMAkGA1UEBhMCVVMx
EDAOBgNVBAgMB0Zsb3JpZGExDjAMBgNVBAcMBVRhbXBhMQwwCgYDVQQKDANOR0Mx
DzANBgNVBAsMBkNhbGljbzEaMBgGA1UEAwwRS3ViZXJuZXRlcy1EZXYtQ0EwHhcN
MjUwMTI0MTc0OTMxWhcNMjYwMTI0MTc0OTMxWjBjMQswCQYDVQQGEwJVUzEQMA4G
A1UECAwHRmxvcmlkYTEMMAoGA1UECgwDTkdDMQ8wDQYDVQQLDAZDYWxpY28xIzAh
BgNVBAMMGm9mZmxpbmUtcmVnaXN0cnkuZGV2LmxvY2FsMIIBIjANBgkqhkiG9w0B
AQEFAAOCAQ8AMIIBCgKCAQEAnlKNRxttv3gQDph2fPYx9Aa8UCWOJ21aDED4gRaB
Q+6wshY8f9kC1/MjmD1fY7JW1h8lQe3mGQ+12DfvPRTvS/DrGeUdfQ2fWj6AAKse
wTW+jH58IhWb3/QeANcqz/wdICRrYNEQNHWvAZ3JXcnY0SxRBGaGV+UIU+rDhI+N
13BrTYsS6wLwTQs8+4RtYb7Miv4MGOIL3HIkUBpGjXZoPUqFhLxNhxxUAXfPFgd3
W5Xg115iP5G1AwdwxVcDeo6AdxganAZ2CsZkJMe8nlmhtv7H1Txx6xQhoBLU4kjJ
GqGRk7EkesZTl8LTVQ1eZydJpatbZtjvpVy5t35/wRrWtwIDAQABo4GkMIGhMBMG
A1UdJQQMMAoGCCsGAQUFBwMBMAsGA1UdDwQEAwIEMDA9BgNVHREENjA0ghpvZmZs
aW5lLXJlZ2lzdHJ5LmRldi5sb2NhbIIQb2ZmbGluZS1yZWdpc3RyeYcECgAD5TAd
BgNVHQ4EFgQU6p5H22ZaJhB3/27WG9P/Sc5R0hwwHwYDVR0jBBgwFoAUpyjpsx2K
lvBGrTyrB+mPLqJC4twwDQYJKoZIhvcNAQELBQADggIBAFPKHjgkvQ+POSrGsKHx
lXl3c0vxMwILK1VPOM6PqtJT6LIZpm53wECZsH7/BGHgqr7+ZQYWBvaYqcUPYXEv
z5TGsj23epsbBbtGSFb0ygl2WMQ3UzgmhzptaVgGjwtJ+VjBjRg77/pIN4wRnOlo
ptvIquRGfN2uKtDZxoccq67b9p2E0bhr/uJvPFYs6DJNEgNznLOMvCawMelwiiMx
mpvzqhSgUDWsVkSB4fcJyomm4rCFoi6HCzTnZf85xFJtU8pXC3oNbi7ogv8efDd+
0wdrbpc4WdbuO5lqLZrrRFKhUXCNVVqce/EOycDLYYhua5VX2qWggHBdsK+5JPhw
SiUOEP6Ior7AvpxnfFY5b8Z+rrRwlpy2NEpJsvrFULFD8U2wMhdQ1mHVT98Wdn6r
IZSC9ZfwJKZH/opGa/dYnENcqCn32kgqTobgIosvctaB5lUmG9XCu2O3Il3kqbTV
qZDbFpiRTtyFMlC0z607j1QTB7+aXxxD6rBV9RQkso1E/nowfNDM8mVSo0LHMjBK
UKodJSckEbqxwTHugNBDFwPbfpkz2F8inecdJIawYiohNbpbU3wh0YXO6OcCIVWw
d4HmQDvOK8yntKJZjlzM+qV3n8ptHS0kl3iLJe3YNcvxSqh3dWs+3mXZpauHqD1i
9gVwiiglt+54I5s3qIxTL4aX
-----END CERTIFICATE-----
-----BEGIN CERTIFICATE-----
MIIFtTCCA52gAwIBAgIUGGhn5o8aLUpYS35M3fne5WXJE6cwDQYJKoZIhvcNAQEL
BQAwajELMAkGA1UEBhMCVVMxEDAOBgNVBAgMB0Zsb3JpZGExDjAMBgNVBAcMBVRh
bXBhMQwwCgYDVQQKDANOR0MxDzANBgNVBAsMBkNhbGljbzEaMBgGA1UEAwwRS3Vi
ZXJuZXRlcy1EZXYtQ0EwHhcNMjUwMTI0MTI0NjU2WhcNMzUwMTIyMTI0NjU2WjBq
MQswCQYDVQQGEwJVUzEQMA4GA1UECAwHRmxvcmlkYTEOMAwGA1UEBwwFVGFtcGEx
DDAKBgNVBAoMA05HQzEPMA0GA1UECwwGQ2FsaWNvMRowGAYDVQQDDBFLdWJlcm5l
dGVzLURldi1DQTCCAiIwDQYJKoZIhvcNAQEBBQADggIPADCCAgoCggIBALrDuh+F
7Yn9SUJkWI1QMfl8q6d/1mGXJyaWX3oToffIlQpA+3m9dXESRcU4Tu2d37Arfcq+
HVlMz0OYLUepEfQvNBR6DlEr+wLiLtD5J87oSWB2FnBmqnQEIofum0BodOIUYHdf
H+6dTB0M6+Z+eO55VZRPkMZHQajmGPnX2KdD/VRg2YhFhY+MCTU657EWnrEdwA+L
3ORveEAYsJh0GTqqqOZwTxUqUo2Pa/u5nWZojSJWc3ZXd9kamZqpuJ2AUXurR22z
/PVSQg3OTv6o9zGdK0GAeyLHLtL52RC1paRlfq/lHhR2HNw7dQq/EgNpqcGTH2ui
m3hD1P5ltlaSegDa2NZpmjv2ctUu5ePiGa7OHBmuJ0d5KknmHD68jtoBPW5E034q
RsB9aEN9F97PmOtgkjEFCBpxUbVOPdu4K+hHQG67kYwhc2654+YWI5QraCTI8mOl
A/7dTpXfwE9VxJb1Dc58p8ARtY1OqdCAbVGDHd4OLdce93cXaKT3Tuqm7LiSf92I
Gy67Gt4OaLeqzaBQ2y6AcF0BopVb3kzGbNWRuQ6FpWbhsc0Axb1qTGeyB0QILaMo
nLtFNCa9+5aIbibwS4uLO4i8Cq7OSQAzEV9qMBidMxIBVt+10R7BuDbBBS3kK8Zt
VaABvmf9ajph5oEwiRULgylI7m/eZtuxIMrdAgMBAAGjUzBRMB0GA1UdDgQWBBSn
KOmzHYqW8EatPKsH6Y8uokLi3DAfBgNVHSMEGDAWgBSnKOmzHYqW8EatPKsH6Y8u
okLi3DAPBgNVHRMBAf8EBTADAQH/MA0GCSqGSIb3DQEBCwUAA4ICAQBx4waMqus2
6FG8XFoNSU3sAT95PUv47Co5DnJxaUNJUen+f72yTzT5wgHzElcKoJ7KtIRs1dZH
o+vdnk6PMJ7v0iJj6A/Dig+tzL+OKtfxQbyW0Lsj+A15nKnWPuwhmdpc2FbfqAQU
hetPB1TLfCYcJEtaLcfm3KMyxQ57MMz2gNiTOrbjJGMOXUrdmnRELbxsVU9C6VsO
Z/pg+Cq332QZ0fqLMZiBxhJHscjKfaUkkMG5xGLdpktKAoFnlG6CPLCVYsMHWwxG
UztwAUYKHSmAZRS4Bnx5pyeCHOFxwCevGeOFFuyt10kU3goy9VTBmJraskr5bdz1
EORn43mHPNBuT4z0qnP6AtjBqFB8Nu7M2bN+CsY6WMZffqFMqEfHLINChTjRR26H
13SFLwphYizLG8+ogEV0/cnr32zEqiwj7pmvrMRXiLX4PxFU2LXEFQp/FnxWC796
Ip/IdlAFXBamTPcBTU9xs0MSNbB8vUG0B5SAW0TRcwTXbdyL3kHmQouoL0lQZZ57
Yf8Bpr40q4NZiR8x0uUPK/W7SlRyzoi/+Ln/S2TqvJDzxWIN5IWX8McxRcPIPCit
ZVbE22Ow2xgKu5bu5WK33aIRRb7tBD+YvcqWR8qQuar0i5TBN/f/ZqDnJLXnIsKR
7/mqv9VIUO/64vMBmju5USM7fZPHL8jeWQ==
-----END CERTIFICATE-----
