Certificate:
    Data:
        Version: 3 (0x2)
        Serial Number: 4098 (0x1002)
        Signature Algorithm: sha256WithRSAEncryption
        Issuer: C=US, ST=Florida, L=New Port Richey, O=Cantrell Cloud ES, OU=InfoSys, CN=COPINE Kubernetes Issuing Certificate Authority 01
        Validity
            Not Before: Mar 20 21:20:38 2025 GMT
            Not After : Apr 19 21:20:38 2027 GMT
        Subject: C=US, ST=Florida, L=New Port Richey, O=Cantrell Cloud ES, OU=InfoSys, CN=rocket.cantrelloffice.cloud
        Subject Public Key Info:
            Public Key Algorithm: rsaEncryption
                Public-Key: (2048 bit)
                Modulus:
                    00:c1:15:92:76:0d:53:6c:f6:ad:9a:23:4d:3f:ed:
                    98:eb:ad:8a:c1:1d:89:68:ec:4e:70:0a:b7:16:28:
                    7b:3b:20:18:e3:b5:6f:00:d3:45:44:8e:77:29:48:
                    01:52:a3:4b:84:a7:e4:ed:f2:31:9f:09:a6:92:e6:
                    01:67:39:37:33:af:79:92:37:4b:13:71:ea:d9:0c:
                    80:d2:e2:d2:c8:82:f6:dc:d7:e9:d3:4c:b0:bd:8f:
                    2e:8f:43:7c:0e:80:0c:80:74:ca:fc:7a:43:f5:c3:
                    a8:f3:9f:a8:52:85:3b:67:05:b2:75:0b:9f:3e:de:
                    99:e6:ed:ad:01:4b:5d:5d:7a:3f:46:37:27:3f:72:
                    d6:dc:f5:6f:7e:11:20:48:47:81:95:cb:b1:de:28:
                    2e:07:73:d3:a5:54:b8:89:d3:2d:fe:02:40:23:79:
                    94:c9:f6:6a:9b:a1:7d:52:8c:bf:a7:79:12:56:b3:
                    a7:de:91:37:8c:a9:c5:3d:c3:d1:a2:f8:7a:6c:f5:
                    8e:fa:06:8b:71:48:ed:77:87:50:4d:c8:c2:c9:d2:
                    0c:10:0d:f2:de:ae:ad:ba:a4:19:79:76:b5:98:39:
                    2d:d1:b8:23:ef:bf:b1:56:b7:c1:8b:55:00:1a:c6:
                    e4:93:41:01:54:72:8d:8e:b0:c2:c4:ea:ce:ed:0d:
                    9f:53
                Exponent: 65537 (0x10001)
        X509v3 extensions:
            X509v3 Extended Key Usage: 
                TLS Web Server Authentication
            X509v3 Key Usage: 
                Key Encipherment, Data Encipherment
            X509v3 Subject Alternative Name: 
                DNS:rocket.cantrelloffice.cloud, DNS:rocket, IP Address:10.0.69.48
            X509v3 Subject Key Identifier: 
                D1:E3:70:24:56:D0:DD:BF:A7:99:51:DA:77:43:6D:6D:0D:42:DB:5D
            X509v3 Authority Key Identifier: 
                27:BF:52:F0:9E:EF:9C:A0:1B:14:34:53:CC:75:24:CD:15:43:F8:EA
    Signature Algorithm: sha256WithRSAEncryption
    Signature Value:
        2c:0f:68:91:7e:6c:71:61:db:98:d1:05:dc:cd:84:cf:2b:89:
        53:a7:50:4c:6e:eb:2d:f1:50:fe:3f:bf:b5:d3:c9:99:2b:3a:
        d0:b2:e8:26:99:d3:ee:83:3d:bd:dc:75:03:5f:53:c4:ee:6f:
        b7:6a:3a:d9:99:0a:93:26:c4:52:3d:db:82:3e:28:7f:37:0a:
        7b:21:c9:15:61:d0:d5:6f:07:1f:93:bd:a1:5f:ec:a0:d5:c2:
        ba:ba:5b:a8:14:69:2c:7a:2e:b1:c3:96:e0:24:7e:d6:f8:43:
        95:cd:a4:a4:3a:76:79:bd:4a:48:a3:b8:5c:3c:e6:48:93:c4:
        52:b5:ce:38:66:0d:9c:1d:00:d0:64:f6:a7:28:fb:e6:7a:be:
        22:4e:26:c2:92:d6:8b:d8:7e:7f:05:39:2b:40:16:fc:01:50:
        20:a4:4c:b4:b1:37:a4:7b:fe:28:c2:96:48:c9:ca:c5:13:bf:
        2c:d8:1d:f5:7b:60:c2:3a:1b:ef:8f:cf:d5:03:28:5b:7e:2c:
        fe:94:65:84:34:bb:08:82:9f:73:db:83:7e:80:fb:02:9e:38:
        a9:43:86:50:92:fd:f9:71:ea:87:8a:98:6e:ca:40:44:6c:31:
        fc:97:17:0d:6d:bf:c4:d9:cf:42:5a:61:dc:ec:ee:9b:6c:46:
        37:92:69:db:da:b2:58:f3:4e:b5:24:b0:2f:a3:7b:e8:c8:9a:
        ac:fa:0e:8d:20:1d:e4:c4:07:de:a3:d2:58:1d:0d:11:9f:46:
        28:48:0d:6e:06:a6:12:39:f6:f1:e2:8f:63:06:4e:00:fe:e0:
        e9:71:f8:8b:16:f5:6d:91:ea:74:ac:a1:39:02:0d:50:82:8e:
        00:e2:44:7d:bb:ce:c6:81:9b:fc:58:a1:ec:de:c6:81:fe:aa:
        81:bb:38:5f:8d:86:2e:68:7f:3f:97:05:4a:aa:47:8c:7c:ac:
        9c:47:c8:5f:a3:67:d6:19:20:d8:f3:23:7a:67:bb:8e:b1:61:
        2f:58:47:90:23:0f:74:37:0c:e9:e6:21:37:e4:cb:06:e4:03:
        57:77:b4:e9:5c:39:0e:27:35:78:79:42:b5:58:cf:7c:61:9e:
        8e:3f:f4:e3:38:83:4b:ae:06:e0:1e:18:72:db:83:58:36:d1:
        55:8a:87:e2:db:ab:28:e1:e5:91:84:c8:9e:ad:76:be:74:9e:
        4c:0d:bc:d5:c4:c8:b9:71:a8:9e:1e:07:f6:75:e3:84:9e:94:
        0d:32:8c:72:dd:47:d9:fc:ed:d9:50:ba:56:6f:e6:39:c3:96:
        ff:e5:2e:bd:ac:77:67:54:e7:d9:6d:7d:70:88:fd:4f:54:4e:
        26:47:41:9d:bb:f4:e7:81
-----BEGIN CERTIFICATE-----
MIIFSzCCAzOgAwIBAgICEAIwDQYJKoZIhvcNAQELBQAwgaQxCzAJBgNVBAYTAlVT
MRAwDgYDVQQIDAdGbG9yaWRhMRgwFgYDVQQHDA9OZXcgUG9ydCBSaWNoZXkxGjAY
BgNVBAoMEUNhbnRyZWxsIENsb3VkIEVTMRAwDgYDVQQLDAdJbmZvU3lzMTswOQYD
VQQDDDJDT1BJTkUgS3ViZXJuZXRlcyBJc3N1aW5nIENlcnRpZmljYXRlIEF1dGhv
cml0eSAwMTAeFw0yNTAzMjAyMTIwMzhaFw0yNzA0MTkyMTIwMzhaMIGNMQswCQYD
VQQGEwJVUzEQMA4GA1UECAwHRmxvcmlkYTEYMBYGA1UEBwwPTmV3IFBvcnQgUmlj
aGV5MRowGAYDVQQKDBFDYW50cmVsbCBDbG91ZCBFUzEQMA4GA1UECwwHSW5mb1N5
czEkMCIGA1UEAwwbcm9ja2V0LmNhbnRyZWxsb2ZmaWNlLmNsb3VkMIIBIjANBgkq
hkiG9w0BAQEFAAOCAQ8AMIIBCgKCAQEAwRWSdg1TbPatmiNNP+2Y662KwR2JaOxO
cAq3Fih7OyAY47VvANNFRI53KUgBUqNLhKfk7fIxnwmmkuYBZzk3M695kjdLE3Hq
2QyA0uLSyIL23Nfp00ywvY8uj0N8DoAMgHTK/HpD9cOo85+oUoU7ZwWydQufPt6Z
5u2tAUtdXXo/RjcnP3LW3PVvfhEgSEeBlcux3iguB3PTpVS4idMt/gJAI3mUyfZq
m6F9Uoy/p3kSVrOn3pE3jKnFPcPRovh6bPWO+gaLcUjtd4dQTcjCydIMEA3y3q6t
uqQZeXa1mDkt0bgj77+xVrfBi1UAGsbkk0EBVHKNjrDCxOrO7Q2fUwIDAQABo4Gb
MIGYMBMGA1UdJQQMMAoGCCsGAQUFBwMBMAsGA1UdDwQEAwIEMDA0BgNVHREELTAr
ghtyb2NrZXQuY2FudHJlbGxvZmZpY2UuY2xvdWSCBnJvY2tldIcECgBFMDAdBgNV
HQ4EFgQU0eNwJFbQ3b+nmVHad0NtbQ1C210wHwYDVR0jBBgwFoAUJ79S8J7vnKAb
FDRTzHUkzRVD+OowDQYJKoZIhvcNAQELBQADggIBACwPaJF+bHFh25jRBdzNhM8r
iVOnUExu6y3xUP4/v7XTyZkrOtCy6CaZ0+6DPb3cdQNfU8Tub7dqOtmZCpMmxFI9
24I+KH83CnshyRVh0NVvBx+TvaFf7KDVwrq6W6gUaSx6LrHDluAkftb4Q5XNpKQ6
dnm9SkijuFw85kiTxFK1zjhmDZwdANBk9qco++Z6viJOJsKS1ovYfn8FOStAFvwB
UCCkTLSxN6R7/ijClkjJysUTvyzYHfV7YMI6G++Pz9UDKFt+LP6UZYQ0uwiCn3Pb
g36A+wKeOKlDhlCS/flx6oeKmG7KQERsMfyXFw1tv8TZz0JaYdzs7ptsRjeSadva
sljzTrUksC+je+jImqz6Do0gHeTEB96j0lgdDRGfRihIDW4GphI59vHij2MGTgD+
4Olx+IsW9W2R6nSsoTkCDVCCjgDiRH27zsaBm/xYoezexoH+qoG7OF+Nhi5ofz+X
BUqqR4x8rJxHyF+jZ9YZINjzI3pnu46xYS9YR5AjD3Q3DOnmITfkywbkA1d3tOlc
OQ4nNXh5QrVYz3xhno4/9OM4g0uuBuAeGHLbg1g20VWKh+Lbqyjh5ZGEyJ6tdr50
nkwNvNXEyLlxqJ4eB/Z144SelA0yjHLdR9n87dlQulZv5jnDlv/lLr2sd2dU59lt
fXCI/U9UTiZHQZ279OeB
-----END CERTIFICATE-----
-----BEGIN PRIVATE KEY-----
MIIEvQIBADANBgkqhkiG9w0BAQEFAASCBKcwggSjAgEAAoIBAQDBFZJ2DVNs9q2a
I00/7ZjrrYrBHYlo7E5wCrcWKHs7IBjjtW8A00VEjncpSAFSo0uEp+Tt8jGfCaaS
5gFnOTczr3mSN0sTcerZDIDS4tLIgvbc1+nTTLC9jy6PQ3wOgAyAdMr8ekP1w6jz
n6hShTtnBbJ1C58+3pnm7a0BS11dej9GNyc/ctbc9W9+ESBIR4GVy7HeKC4Hc9Ol
VLiJ0y3+AkAjeZTJ9mqboX1SjL+neRJWs6fekTeMqcU9w9Gi+Hps9Y76BotxSO13
h1BNyMLJ0gwQDfLerq26pBl5drWYOS3RuCPvv7FWt8GLVQAaxuSTQQFUco2OsMLE
6s7tDZ9TAgMBAAECggEAELU0KkD28hvaY9cgLSL7M5Gdyx4qMMkZ9HoI48L2/uPF
I5ckltaxTMBjMVBIxQTaWQ1KMwjdIFzubBG5F1yNGUza4TslpPYbk1KQpy73fGBQ
ykVot18QgCauqbj2OC7+ZfM1SWmvDcoziXlMUG+09zI4AgbSbddHTANPECicWKU/
ofGHACZael9LFWYlN/sBfKpCI0+2V9ZTWuN8kv2NB+Bx3NmdzIEnqU41EJ4LOzkT
mF1YA648rHlbbCo5C8Ihd8MMeouzHt9uB6L5czscSgJ01objrtAYCRnOmqV5ZrUn
aPkZPCxzNiH17Z/pxsA20yOXJmd6HlH2ijGcvCOcEQKBgQD8MEyeekjO2gtmZ76Y
KUas7zj5E20tHszU1/pkSpGIC+lChF8a/TP4AH2Kw8LqtWKKinDNohWn29Bhenvw
nTtfaX6cLSIaZvgtod3rBGypxPx7exlvs6gg445AMOmZykYsEYIVjmwHyoCLC2nG
/aHx9z3U2h2Soku2CHaMeeO+iwKBgQDEAJoYBSjUSoUISd05nRMXkN8Q1pB+1H0j
2qG5BwyPchlF+IIMGXUzyvOg/oKDrZgBew20C4mVnhGYmbiWw8dAk5RewMlH+vzK
K0u44VPQMxIygbypjVrWRv/VMz2ciob6Eip9jXHYSdlnuR7wC1BNmYLG6KFtUoCM
Ki/2iEZDWQKBgFhzcEwdQ7AZVepC9NxVjc5V0Tu7Do3GwbzdS5sldEmtM9D6sIi8
yh9vvJiQ9Kpxl/BTgiD9em73b+zgktvfqdVbIOcSBWYRO3Z10Wn+kUYyKwP8Nv2w
m4V9ioUFIsmn4ljOgzugSk+pPNCH3j/G8af2OZ+QKNMnTTq5WSsIDVLlAoGBAKm/
M7UV0tR4bVpOTi+1X3GLYAS/LokJEg/ZKzKJblFVKZo1rLs52Q0v+Ws2wGW2E+1E
WwvQ6ikPqoGUsA6yI4BDz714DVovfnrAoGXPj7zCXkIrpe7Zow/skWhdZkCKoHc3
AGGX/D6rRoPUCX0u7y8lgeMuWY/KYdYCO2OxhdiRAoGABf2V6rRsHUsqa/kq1qpu
ZPugsTLxiqwnzgT6RVYDY0D3Wedokgcz4nq1h8ezPGbPRDd3ceaeu07HlKbqdiDb
iba0D7B09MIqCHVzLRz1oGQhI7faso/7NzCpnBu0E12qmRd9xViGY9iAK+O4FS0t
LYE90Ag6ixctg2AgPfZTs2c=
-----END PRIVATE KEY-----
